(dp0
S'Kyle_Collinsworth'
p1
(dp2
S'DRBPM'
p3
F-0.8121966339666579
sS'2PP'
p4
F-0.38019909694469534
sS'FGPM'
p5
F-0.8542372959915894
sS'3PP'
p6
F-0.6534191275531837
sS'DWSPM'
p7
F-0.7113794304779144
sS'TRBP'
p8
F-0.7433239229105251
sS'PER'
p9
F-0.3364913379420895
sS'FTPM'
p10
F-0.721604476512836
sS'3PAPM'
p11
F-0.8931810888940168
sS'BLKPM'
p12
F-0.8995211489345986
sS'DRBP'
p13
F-0.7849187706392362
sS'USGP'
p14
F-0.4903041482179345
sS'OBPM'
p15
F-0.2878118332343963
sS'PFPM'
p16
F-0.8218650905965758
sS'eFGP'
p17
F-0.5703331244138493
sS'DBPM'
p18
F0.12644632963789798
sS'3PPM'
p19
F-0.975609826930916
sS'FGP'
p20
F-0.40335919445096585
sS'PPM'
p21
F-0.8534510250473405
sS'FTAPM'
p22
F-0.7569950679721692
sS'TSP'
p23
F-0.4926774544993125
sS'3PAr'
p24
F-0.49719037663647025
sS'TOVP'
p25
F-0.7794751439164193
sS'WSP48'
p26
F-0.3330127751576471
sS'STLP'
p27
F-0.7334201021846833
sS'FTP'
p28
F0.060386437818372135
sS'GS'
p29
F-0.9470352380551937
sS'GSPG'
p30
F-0.8521209718983844
sS'G'
p31
F-0.639749030615596
sS'BPM'
p32
F-0.034356745052989836
sS'VORP'
p33
F-0.7707473028476538
sS'2PPM'
p34
F-0.8786274690606737
sS'ORBPM'
p35
F-0.900514133995709
sS'TRBPM'
p36
F-0.7127107679623665
sS'ASTP'
p37
F-0.8308968388519704
sS'STLPM'
p38
F-0.7345221551775021
sS'MPG'
p39
F-0.4385232556158352
sS'FTr'
p40
F-0.862947726563422
sS'ORBP'
p41
F-0.8895067493909123
sS'BLKP'
p42
F-0.8995461504712361
sS'2PAPM'
p43
F-0.6985615997622923
sS'MP'
p44
F-0.8647942983019503
sS'FGAPM'
p45
F-0.5917426886563093
sS'TOVPM'
p46
F-0.8994021878781819
sS'ASTPM'
p47
F-0.7419687178947408
sS'OWSPM'
p48
F-0.4970214959932791
sS'WSPM'
p49
F-0.489697374175762
ssS'Ben_Simmons'
p50
(dp51
g3
F-0.7697756764224082
sg4
F-0.10795022876900226
sg5
F-0.7333278504674599
sg6
F-0.602383230004558
sg7
F-0.5164163771930343
sg8
F-0.6971728783195372
sg9
F-0.3092223692603713
sg10
F-0.7384380364647908
sg11
F-0.9013630058317721
sg12
F-0.8689668124722398
sg13
F-0.7356613400975567
sg14
F-0.21263290769681173
sg15
F-0.2756525262503921
sg16
F-0.812574781024731
sg17
F-0.39796999502081637
sg18
F0.11392791797060867
sg19
F-0.9682967444860467
sg20
F-0.14262554252290105
sg21
F-0.7729008946165876
sg22
F-0.69899887797548
sg23
F-0.36744037625771847
sg24
F-0.713593508832492
sg25
F-0.690095159435465
sg26
F-0.33916380766031273
sg27
F-0.7618880063537897
sg28
F0.22527321232930667
sg29
F-0.09768279176652422
sg30
F0.02598101648541802
sg31
F0.41524536712691107
sg32
F-0.02739391805394174
sg33
F-0.7427134170851388
sg34
F-0.7650311059814133
sg35
F-0.895339904320757
sg36
F-0.6651155807431655
sg37
F-0.6907676713963165
sg38
F-0.7705598315169029
sg39
F0.01604276392358844
sg40
F-0.8855515481165543
sg41
F-0.8820633053145694
sg42
F-0.876831133155139
sg43
F-0.4772995610036001
sg44
F-0.16014324869765023
sg45
F-0.3786625668353722
sg46
F-0.8024406075079947
sg47
F-0.5888161155927001
sg48
F-0.5089298656164098
sg49
F-0.4970537242377805
ssS'Justin_Patton'
p52
(dp53
g3
F-0.663270025319519
sg4
F0.029625630972658364
sg5
F-0.6621570884332917
sg6
F-0.8016108766482092
sg7
F-0.47122463565828554
sg8
F-0.5106174583528063
sg9
F-0.2556437414004821
sg10
F-0.6513647009961405
sg11
F-0.9823439266582779
sg12
F-0.7146563160049925
sg13
F-0.6070857194665344
sg14
F-0.176562512308133
sg15
F-0.25055996600068275
sg16
F-0.7453202939799247
sg17
F-0.318791196914481
sg18
F0.14373868463800973
sg19
F-0.9956961025816615
sg20
F0.016340654917364795
sg21
F-0.7216870858895841
sg22
F-0.668561219553948
sg23
F-0.2710890559133353
sg24
F-0.9536722121762411
sg25
F-0.7358163543911312
sg26
F-0.30160857699644633
sg27
F-0.8318520589372512
sg28
F0.3854776962078803
sg29
F-0.3808865779161137
sg30
F-0.26527365862443464
sg31
F0.5733764438450744
sg32
F0.008066701466005983
sg33
F-0.7320016414536724
sg34
F-0.6664609858516303
sg35
F-0.8073315693912217
sg36
F-0.4706015947107406
sg37
F-0.8490050550161354
sg38
F-0.8366833915134747
sg39
F-0.14505294325564866
sg40
F-0.8819228585821359
sg41
F-0.7773189584032284
sg42
F-0.7146188010457226
sg43
F-0.3485517351253238
sg44
F-0.2619334334735872
sg45
F-0.3308956617836017
sg46
F-0.8292734256930541
sg47
F-0.8092119046023846
sg48
F-0.48484391945729216
sg49
F-0.4709978604464362
ssS'Dwayne_Bacon'
p54
(dp55
g3
F-0.8098282209102601
sg4
F-0.19190053902677806
sg5
F-0.7623662485414691
sg6
F-0.5478523338873317
sg7
F-0.7039394447176637
sg8
F-0.7917353593079322
sg9
F-0.3482620157273429
sg10
F-0.6793432046946234
sg11
F-0.8306438028391016
sg12
F-0.9732444821032884
sg13
F-0.7842064099159826
sg14
F-0.23702077482808534
sg15
F-0.3055505550430415
sg16
F-0.8290206860647557
sg17
F-0.4702858188531024
sg18
F0.028751164735553638
sg19
F-0.9618360391140303
sg20
F-0.2679210217389113
sg21
F-0.7813514683167114
sg22
F-0.7042334773783467
sg23
F-0.3952048272448246
sg24
F-0.399577780991966
sg25
F-0.6939719344433487
sg26
F-0.35990921998181996
sg27
F-0.7963766877459392
sg28
F0.2731631556460325
sg29
F-0.9101516205405944
sg30
F-0.7456018398962916
sg31
F-0.5233708850358663
sg32
F-0.086777255747281
sg33
F-0.7998694089045827
sg34
F-0.8005302094274389
sg35
F-0.9558829251133755
sg36
F-0.7657111460236354
sg37
F-0.7583752264660806
sg38
F-0.798253651507723
sg39
F-0.4010085890422045
sg40
F-0.8650376469208729
sg41
F-0.9514716776406166
sg42
F-0.9723171899449117
sg43
F-0.5528940774408175
sg44
F-0.8124517345876535
sg45
F-0.38353788027991886
sg46
F-0.8202731367161983
sg47
F-0.6695947901177876
sg48
F-0.5117543882767055
sg49
F-0.5065815719231815
ssS'Daniel_Hamilton'
p56
(dp57
g3
F-0.5878122102774473
sg4
F-0.24354048776611262
sg5
F-0.8177719089686302
sg6
F-0.4709975881664907
sg7
F-0.5641616278037266
sg8
F-0.5812567329623891
sg9
F-0.33486920939408577
sg10
F-0.8820551617365755
sg11
F-0.7922708161439715
sg12
F-0.9302462855658834
sg13
F-0.5672253585700379
sg14
F-0.4239813016365319
sg15
F-0.3054074905981039
sg16
F-0.8704457019250684
sg17
F-0.4871630167541908
sg18
F0.09373701440576215
sg19
F-0.9375020397352576
sg20
F-0.34398179527160894
sg21
F-0.8402086431851469
sg22
F-0.86751790754125
sg23
F-0.46429268602785434
sg24
F-0.2496800646113595
sg25
F-0.75620990587276
sg26
F-0.33722558722747964
sg27
F-0.7921765601651722
sg28
F0.007947636620336818
sg29
F-0.6780952424604173
sg30
F-0.47475679716597513
sg31
F-0.25292280513243665
sg32
F-0.0647237013278779
sg33
F-0.7698857228043922
sg34
F-0.8802698692333722
sg35
F-0.9412205450285316
sg36
F-0.529032755305979
sg37
F-0.7225168774515681
sg38
F-0.7909514409382867
sg39
F-0.41119986274990833
sg40
F-0.9463467773984031
sg41
F-0.936113587595691
sg42
F-0.9278680233514319
sg43
F-0.715126028702431
sg44
F-0.6738780065299355
sg45
F-0.5073968448464027
sg46
F-0.8588411404183941
sg47
F-0.5810368287518618
sg48
F-0.5090206862907739
sg49
F-0.5005071319764038
ssS'Dakari_Johnson'
p58
(dp59
g3
F-0.6389736689236304
sg4
F-0.004491467535740016
sg5
F-0.6574376685196551
sg6
F-0.7498779218813277
sg7
F-0.3616570615889081
sg8
F-0.5161667373495964
sg9
F-0.22892117640746223
sg10
F-0.7010351398760232
sg11
F-0.941632036068557
sg12
F-0.5700832933846496
sg13
F-0.5902967376939866
sg14
F-0.1543388923247509
sg15
F-0.2321689914391779
sg16
F-0.7622481739517672
sg17
F-0.33554177997365553
sg18
F0.23702339406799944
sg19
F-0.9795352982252227
sg20
F-0.03640287176918809
sg21
F-0.7205124546994404
sg22
F-0.6706489515406896
sg23
F-0.2980277193698015
sg24
F-0.8101595328004367
sg25
F-0.780145890311073
sg26
F-0.28185033435764106
sg27
F-0.7275070476148567
sg28
F0.17497406376554497
sg29
F-0.5144055619371988
sg30
F-0.4725978199993837
sg31
F-0.026098226500850585
sg32
F0.059592659762906036
sg33
F-0.7026305744126715
sg34
F-0.6779023702944328
sg35
F-0.8305992407402991
sg36
F-0.4695729096639295
sg37
F-0.668121148131622
sg38
F-0.7360941556516409
sg39
F-0.40771632446265954
sg40
F-0.8771886221681172
sg41
F-0.8057563777284471
sg42
F-0.564582489180117
sg43
F-0.3515231124788965
sg44
F-0.5392829317409819
sg45
F-0.2931551485474535
sg46
F-0.8578983072367091
sg47
F-0.6598226375883502
sg48
F-0.48816413055971336
sg49
F-0.47309506900376475
ssS'Dennis_Smith_Jr.'
p60
(dp61
g3
F-0.8438170300700724
sg4
F-0.1535813991796416
sg5
F-0.7215312210279031
sg6
F-0.3540000220145061
sg7
F-0.5960211754320845
sg8
F-0.8182176148893902
sg9
F-0.2839330268111606
sg10
F-0.6286934218723061
sg11
F-0.7981168762603679
sg12
F-0.9677589416556428
sg13
F-0.8136517798017235
sg14
F-0.12532015378341796
sg15
F-0.21996564216246797
sg16
F-0.845679280829534
sg17
F-0.39344194154082657
sg18
F0.07568866280716549
sg19
F-0.9299363299857338
sg20
F-0.19601737869488334
sg21
F-0.7359912087356698
sg22
F-0.6921483241724078
sg23
F-0.32107978818867056
sg24
F-0.39076366571342613
sg25
F-0.6853792926911448
sg26
F-0.31959997354455977
sg27
F-0.7297300704362022
sg28
F0.6020623439025774
sg29
F0.19554452002226966
sg30
F0.35140661324503975
sg31
F0.6761485788228697
sg32
F0.014077275836782293
sg33
F-0.7084418986667492
sg34
F-0.7915948910421692
sg35
F-0.9599880033088276
sg36
F-0.8038050333789
sg37
F-0.3785769707917628
sg38
F-0.7402586579627475
sg39
F0.36189217355549347
sg40
F-0.8973504065687063
sg41
F-0.9550116413436427
sg42
F-0.9693567066597367
sg43
F-0.5143331184164027
sg44
F0.21937328203913148
sg45
F-0.3124499946767706
sg46
F-0.7813251366876932
sg47
F-0.17944217949563127
sg48
F-0.49116489305187916
sg49
F-0.48209588163721884
ssS'Kadeem_Allen'
p62
(dp63
g3
F-0.8576459570048675
sg4
F-0.2747203481959156
sg5
F-0.7926323706355158
sg6
F-0.5721589786122395
sg7
F-0.6244157288154197
sg8
F-0.837010034396229
sg9
F-0.3387403572364627
sg10
F-0.8054593644395067
sg11
F-0.8445405170621427
sg12
F-0.9598039274115724
sg13
F-0.8380085659997788
sg14
F-0.3423635599348855
sg15
F-0.2884044826188992
sg16
F-0.844011628731422
sg17
F-0.5214302988170407
sg18
F0.07806605005751244
sg19
F-0.9545483218886809
sg20
F-0.35044742648696997
sg21
F-0.8177835194887202
sg22
F-0.817092671278467
sg23
F-0.4791630143678876
sg24
F-0.487533677417318
sg25
F-0.7260495970026
sg26
F-0.3473431064467854
sg27
F-0.7378717265321947
sg28
F0.13326599561483102
sg29
F-0.9474706539044928
sg30
F-0.9468221434588693
sg31
F-0.4786452922204111
sg32
F-0.05254943857598033
sg33
F-0.7859267071978748
sg34
F-0.838084048746835
sg35
F-0.9589392513318867
sg36
F-0.8165852083367542
sg37
F-0.5546374066951302
sg38
F-0.7405150151335478
sg39
F-0.5021770728757653
sg40
F-0.9315465897999446
sg41
F-0.9549690890849021
sg42
F-0.9600457030891754
sg43
F-0.6224904071462303
sg44
F-0.8072328193880887
sg45
F-0.46703092420837305
sg46
F-0.8160950519330971
sg47
F-0.38835748202196096
sg48
F-0.5102118709174844
sg49
F-0.49773297016445917
ssS'Shaquille_Harrison'
p64
(dp65
g3
F-0.8367913077805884
sg4
F-0.11439088763432512
sg5
F-0.7446169574570125
sg6
F-0.34559828839324935
sg7
F-0.4201775877339924
sg8
F-0.7717238656996789
sg9
F-0.2988855663673919
sg10
F-0.7363640133132167
sg11
F-0.7586406731930992
sg12
F-0.953103710559701
sg13
F-0.8124005236904636
sg14
F-0.1800822960271527
sg15
F-0.2359038444032945
sg16
F-0.8134090492784493
sg17
F-0.39163003013232367
sg18
F0.11303697238174626
sg19
F-0.9228144908875158
sg20
F-0.21203189867933225
sg21
F-0.7649589520543234
sg22
F-0.7639247943584528
sg23
F-0.3437075374691433
sg24
F-0.23308948372397606
sg25
F-0.6654511769407581
sg26
F-0.3189814900002612
sg27
F-0.6616991188892387
sg28
F0.47555087852395134
sg29
F-0.6667520520501743
sg30
F-0.6439400804230768
sg31
F0.3244780651877249
sg32
F0.0119032469878484
sg33
F-0.7056513126469789
sg34
F-0.8218024665694968
sg35
F-0.9162681909962359
sg36
F-0.7530594987768244
sg37
F-0.5345025322768757
sg38
F-0.6786958974951354
sg39
F-0.2515314663402476
sg40
F-0.9209284033728103
sg41
F-0.9014191304774081
sg42
F-0.9552184357502498
sg43
F-0.5892210970010088
sg44
F-0.3874184133296988
sg45
F-0.34786177019410797
sg46
F-0.7910849442954506
sg47
F-0.3676706769266907
sg48
F-0.49804294791128967
sg49
F-0.4826111953351299
ssS'Luke_Kennard'
p66
(dp67
g3
F-0.8025280554212506
sg4
F-0.03531688717080285
sg5
F-0.6996435253733098
sg6
F-0.4139950711604885
sg7
F-0.4827312387239865
sg8
F-0.7646128591496731
sg9
F-0.2966547237093526
sg10
F-0.7148677327915101
sg11
F-0.7595197009449405
sg12
F-0.9431211717673638
sg13
F-0.7757044992215648
sg14
F-0.18685105685915737
sg15
F-0.2401684462042554
sg16
F-0.8113503815192659
sg17
F-0.365879663538961
sg18
F0.07505197426003579
sg19
F-0.9242841923197206
sg20
F-0.15703896980231669
sg21
F-0.7322819303245593
sg22
F-0.6976558867762985
sg23
F-0.3270604730865033
sg24
F-0.3093132590410675
sg25
F-0.8113698422580953
sg26
F-0.3119974055460432
sg27
F-0.7492193449381837
sg28
F0.2725408507528544
sg29
F-0.843414959404349
sg30
F-0.7294145856151074
sg31
F0.0896657917745852
sg32
F-0.006189248965831477
sg33
F-0.7537054510443358
sg34
F-0.7753593330535893
sg35
F-0.9362130708370102
sg36
F-0.7387411262582606
sg37
F-0.7878072928878797
sg38
F-0.758507251183052
sg39
F-0.30440467965347473
sg40
F-0.9036147660675735
sg41
F-0.9286382725632335
sg42
F-0.942209549512723
sg43
F-0.5399917031610574
sg44
F-0.5175868871803035
sg45
F-0.2995114041059977
sg46
F-0.880490664920202
sg47
F-0.7144926797480233
sg48
F-0.4907973363197121
sg49
F-0.4782211875070512
ssS'John_Collins'
p68
(dp69
g3
F-0.6772571190375423
sg4
F-0.007318873163414008
sg5
F-0.6877962425775221
sg6
F-0.8043285559343683
sg7
F-0.29534200840146335
sg8
F-0.5470706639546543
sg9
F-0.2634517002730524
sg10
F-0.6982249336129216
sg11
F-0.9759211212196963
sg12
F-0.7324994707644595
sg13
F-0.6266226764409268
sg14
F-0.2046002987722043
sg15
F-0.2505281528118326
sg16
F-0.7522758052132332
sg17
F-0.34194434082639935
sg18
F0.19885339881035455
sg19
F-0.9933405207578407
sg20
F-0.02508865510869538
sg21
F-0.744936918061765
sg22
F-0.7093412068881557
sg23
F-0.2983303397560552
sg24
F-0.913425655428037
sg25
F-0.7285265831162093
sg26
F-0.2973970827462826
sg27
F-0.7873926418426991
sg28
F0.3856070986499619
sg29
F-0.005397940964456253
sg30
F0.0799512764664918
sg31
F0.6916730157931675
sg32
F0.027201131946381244
sg33
F-0.6138520865521028
sg34
F-0.6944557218196813
sg35
F-0.8300449179871832
sg36
F-0.5073020370247256
sg37
F-0.806759560071236
sg38
F-0.7955879177210221
sg39
F0.012542338808643194
sg40
F-0.9029555187056779
sg41
F-0.804684534078629
sg42
F-0.7401991664316286
sg43
F-0.3867628201066986
sg44
F-0.04873275684836714
sg45
F-0.36268394132639514
sg46
F-0.827766101487154
sg47
F-0.7675650441995289
sg48
F-0.48783961772502793
sg49
F-0.46838543434411606
ssS'Ben_Moore'
p70
(dp71
g3
F-0.5683539463053298
sg4
F-0.3193074193613997
sg5
F-0.8415218728341469
sg6
F-0.8190196003239212
sg7
F-0.41816392670226976
sg8
F-0.4069029169294992
sg9
F-0.30998197025653973
sg10
F-0.7730968336216049
sg11
F-0.9196598613536584
sg12
F-0.8484008522413381
sg13
F-0.5098723336737343
sg14
F-0.40163986688179787
sg15
F-0.31365244667991987
sg16
F-0.8317649653381867
sg17
F-0.5535127934293892
sg18
F0.15948274374504998
sg19
F-0.980835599485483
sg20
F-0.3673161171495556
sg21
F-0.8543444978100152
sg22
F-0.7822449383289816
sg23
F-0.4888937657949628
sg24
F-0.7113076353773222
sg25
F-0.6127523320433849
sg26
F-0.32161411864528483
sg27
F-0.7613188653245976
sg28
F0.2717634668934651
sg29
F-0.9557354587167116
sg30
F-0.9114709174334232
sg31
F-0.5246003199620861
sg32
F-0.04915955866790102
sg33
F-0.7606557220302144
sg34
F-0.8606862733486638
sg35
F-0.7797182651978604
sg36
F-0.3480722115031901
sg37
F-0.8459187268541836
sg38
F-0.7716393674727388
sg39
F-0.6125953628019044
sg40
F-0.9023153387663024
sg41
F-0.7465126017171204
sg42
F-0.8527209939904637
sg43
F-0.6533746759748724
sg44
F-0.856055422258923
sg45
F-0.5730345373285307
sg46
F-0.8078281146118165
sg47
F-0.7751880022445227
sg48
F-0.49179230671903706
sg49
F-0.4777230840467296
ssS'Ante_Zizic'
p72
(dp73
g3
F-0.5819920088440995
sg4
F0.014951586377450476
sg5
F-0.6604906305467959
sg6
F-0.871802007504291
sg7
F-0.24865839725053834
sg8
F-0.4823283466518709
sg9
F-0.2547509564276159
sg10
F-0.6176788939412297
sg11
F-0.9503380825178951
sg12
F-0.6251321445501491
sg13
F-0.5224023013631882
sg14
F-0.12531167619843483
sg15
F-0.2822257784615303
sg16
F-0.7120843814669822
sg17
F-0.32406780396884366
sg18
F0.17685141300336493
sg19
F-0.9831029402272693
sg20
F-0.012216111832021065
sg21
F-0.7113879032463951
sg22
F-0.6073877586649931
sg23
F-0.28599491225213647
sg24
F-0.8456763222381255
sg25
F-0.7190976695305175
sg26
F-0.30336550474137086
sg27
F-0.8490285773998408
sg28
F0.34000736918709923
sg29
F-0.7948977912691688
sg30
F-0.6585604650373981
sg31
F-0.30311271817019125
sg32
F-0.012500036694440107
sg33
F-0.7798576145333549
sg34
F-0.6773876903195267
sg35
F-0.846708044918144
sg36
F-0.4287000537622433
sg37
F-0.8000844065292076
sg38
F-0.849690562337413
sg39
F-0.48537857267074885
sg40
F-0.873855909581624
sg41
F-0.8263760203017335
sg42
F-0.610196972805199
sg43
F-0.36297387889960087
sg44
F-0.7842042227422088
sg45
F-0.31331196141749584
sg46
F-0.8064846424849068
sg47
F-0.741738205702619
sg48
F-0.4916360498058449
sg49
F-0.47028260070855815
ssS'Naz_Mitrou-Long'
p74
(dp75
g3
F-0.5666876993329442
sg4
F-0.29666273410584143
sg5
F-0.8510230655809136
sg6
F-0.4721356865047388
sg7
F-0.6927232148588731
sg8
F-0.5780807809507167
sg9
F-0.3523870335108985
sg10
F-0.8020690767163189
sg11
F-0.7715372877452065
sg12
F-0.9859322243457697
sg13
F-0.5417817682367422
sg14
F-0.48485729875748096
sg15
F-0.3192481054332054
sg16
F-0.851524445893008
sg17
F-0.5501325029430115
sg18
F0.04189146542048788
sg19
F-0.9364716883858587
sg20
F-0.4459889570779836
sg21
F-0.8501828401034981
sg22
F-0.830203768796041
sg23
F-0.49308860375573704
sg24
F-0.05097061277023118
sg25
F-0.7480986272370134
sg26
F-0.3388126582914163
sg27
F-0.8425447464668655
sg28
F-0.07649628562136332
sg29
F-0.9029529080682256
sg30
F-0.6589085465994826
sg31
F-0.557872967018418
sg32
F-0.09616639911950611
sg33
F-0.7792625834556766
sg34
F-0.9145513771950549
sg35
F-0.9586807669692988
sg36
F-0.5253684663022429
sg37
F-0.8496137465363626
sg38
F-0.8437589946696746
sg39
F-0.4569072451168802
sg40
F-0.9033152818056677
sg41
F-0.9551421069371311
sg42
F-0.9861015427093365
sg43
F-0.7969094942949131
sg44
F-0.8195580293663907
sg45
F-0.5684467820401197
sg46
F-0.8877514320305651
sg47
F-0.7770286279838172
sg48
F-0.5053642487329614
sg49
F-0.49896141196811616
ssS'Jacob_Pullen'
p76
(dp77
g3
F-0.8627972184386485
sg4
F-0.17995829659859877
sg5
F-0.7079518172692877
sg6
F-0.3918369010752092
sg7
F-0.59921133800992
sg8
F-0.8530830325349011
sg9
F-0.3139942490115326
sg10
F-0.6806035740431067
sg11
F-0.7377963749654495
sg12
F-0.9764136023101714
sg13
F-0.8434310154434421
sg14
F-0.08388508114038361
sg15
F-0.2618467621953559
sg16
F-0.8050236086686829
sg17
F-0.43498931671302676
sg18
F0.013215321078550056
sg19
F-0.9118274843099097
sg20
F-0.26280459360972064
sg21
F-0.7285923839188442
sg22
F-0.7140987862560974
sg23
F-0.3778417756867075
sg24
F-0.28199955244475405
sg25
F-0.7567829728830642
sg26
F-0.3379416120668896
sg27
F-0.7994086954882804
sg28
F0.40726478847630787
sg29
F-0.9850885787426351
sg30
F-0.9549140128974678
sg31
F-0.38766951381584036
sg32
F-0.049616444793825626
sg33
F-0.8057218696950568
sg34
F-0.7961243329593781
sg35
F-0.9726026049943559
sg36
F-0.8353998234330043
sg37
F-0.45150784673369526
sg38
F-0.7985386743253831
sg39
F-0.43688245629782524
sg40
F-0.9143972603586795
sg41
F-0.9691376969320359
sg42
F-0.9762012710884671
sg43
F-0.5108274361276272
sg44
F-0.7787625421249331
sg45
F-0.24862381109307657
sg46
F-0.8103892576985838
sg47
F-0.27847101311461214
sg48
F-0.5025875378114775
sg49
F-0.4912405197199786
ssS'Vince_Hunter'
p78
(dp79
g3
F-0.7118139966760371
sg4
F-0.011634217101837128
sg5
F-0.7344170343203393
sg6
F-0.5968885150938509
sg7
F-0.3432456181172404
sg8
F-0.592573753968577
sg9
F-0.2806733399717116
sg10
F-0.7912059304376995
sg11
F-0.8223699603412538
sg12
F-0.8474813888895082
sg13
F-0.662006985540878
sg14
F-0.29078288208781433
sg15
F-0.23540537562241123
sg16
F-0.7348869847467715
sg17
F-0.330187406580259
sg18
F0.1704650780067684
sg19
F-0.9388601885307424
sg20
F-0.08738014389648976
sg21
F-0.771632297640503
sg22
F-0.8037311834904337
sg23
F-0.2971188443567402
sg24
F-0.4598430095942552
sg25
F-0.7523910481371248
sg26
F-0.2969363044208759
sg27
F-0.7333711973634162
sg28
F0.430185336286841
sg29
F-0.5030798147152691
sg30
F-0.41650071968229274
sg31
F0.40896388336362877
sg32
F0.0321332819231019
sg33
F-0.6912268659011936
sg34
F-0.7955568457895968
sg35
F-0.8443586745070631
sg36
F-0.5561726711831002
sg37
F-0.7881741779274846
sg38
F-0.7471386097550415
sg39
F-0.26335270612164596
sg40
F-0.9225755751761361
sg41
F-0.8240480334779378
sg42
F-0.8453374827299427
sg43
F-0.5799238137160353
sg44
F-0.390872182932063
sg45
F-0.40229377405728883
sg46
F-0.8642556564370406
sg47
F-0.7179645534596757
sg48
F-0.48548833427993265
sg49
F-0.46784770801823905
ssS'Tony_Bradley'
p80
(dp81
g3
F-0.6615609752907051
sg4
F0.006847930535439112
sg5
F-0.7450391544539757
sg6
F-0.8332251487182513
sg7
F-0.2942324976115058
sg8
F-0.5397261882274731
sg9
F-0.3039205575515249
sg10
F-0.6717971317931868
sg11
F-0.9970094328046939
sg12
F-0.7314948379435096
sg13
F-0.6142803752789554
sg14
F-0.27311978879132226
sg15
F-0.3094810399405546
sg16
F-0.6893476776463301
sg17
F-0.32861204236809544
sg18
F0.13590419302152432
sg19
F-0.9989996499473375
sg20
F0.005121626050566035
sg21
F-0.7810700058100128
sg22
F-0.7042371073583068
sg23
F-0.27269686209293825
sg24
F-0.9899252140575953
sg25
F-0.6761804882788713
sg26
F-0.3147341665816338
sg27
F-0.8148365861253886
sg28
F0.4375242971524893
sg29
F-0.9523458529136458
sg30
F-0.8954394729275376
sg31
F0.025878318297516106
sg32
F-0.05339713067241284
sg33
F-0.7823907286648782
sg34
F-0.7460395045066384
sg35
F-0.8339139375775804
sg36
F-0.4954749128682856
sg37
F-0.9149171505208382
sg38
F-0.821178014505782
sg39
F-0.5393970008678111
sg40
F-0.8734680352386713
sg41
F-0.8086468877660206
sg42
F-0.7165884819170513
sg43
F-0.4384591101946468
sg44
F-0.6876806387383749
sg45
F-0.4354685429993407
sg46
F-0.8275721635624183
sg47
F-0.8803120445557291
sg48
F-0.49648710530424855
sg49
F-0.4794981570866731
ssS'Davon_Reed'
p82
(dp83
g3
F-0.7988675602308671
sg4
F-0.33060143752470345
sg5
F-0.8554258838871949
sg6
F-0.48794491895194214
sg7
F-0.6592266858937482
sg8
F-0.7727505436776827
sg9
F-0.37262836915797254
sg10
F-0.7268504249146015
sg11
F-0.7695809487617277
sg12
F-0.9722677221149635
sg13
F-0.7761130096907586
sg14
F-0.40942131131813564
sg15
F-0.30574837701881025
sg16
F-0.8344475190168463
sg17
F-0.5365394701500302
sg18
F0.05621555353165583
sg19
F-0.9454505401277443
sg20
F-0.4181283118627346
sg21
F-0.8449674989176894
sg22
F-0.7796872963878031
sg23
F-0.45067172770724423
sg24
F-0.03868434570705323
sg25
F-0.7211096803725184
sg26
F-0.3565980327539372
sg27
F-0.8639817124273934
sg28
F0.39787975936457376
sg29
F-0.9657719707709317
sg30
F-0.865563933452352
sg31
F-0.4276562141491791
sg32
F-0.07791270530152918
sg33
F-0.7792296297445221
sg34
F-0.9099753437594506
sg35
F-0.9427077357576293
sg36
F-0.7415752959884964
sg37
F-0.8139407495557167
sg38
F-0.8650828447604632
sg39
F-0.5254025805568097
sg40
F-0.8797605796433725
sg41
F-0.9375423515682119
sg42
F-0.9720523420573165
sg43
F-0.7447658452408985
sg44
F-0.8286683956599655
sg45
F-0.5143467940026262
sg46
F-0.8727747871230087
sg47
F-0.7136483792271339
sg48
F-0.5112491964715931
sg49
F-0.5043185420511793
ssS'Johnathan_Motley'
p84
(dp85
g3
F-0.7206483771404997
sg4
F-0.16852538117979807
sg5
F-0.786529193252736
sg6
F-0.5347536536433892
sg7
F-0.5259811480817634
sg8
F-0.6092643120272629
sg9
F-0.3020712124331681
sg10
F-0.7378070243562984
sg11
F-0.9169920348551841
sg12
F-0.8065182134018636
sg13
F-0.6796626780817361
sg14
F-0.3688858094749998
sg15
F-0.2763222685905872
sg16
F-0.7896024603926868
sg17
F-0.44405298195359644
sg18
F0.17226912297427902
sg19
F-0.9743834289974388
sg20
F-0.21382672981980352
sg21
F-0.8103038680352368
sg22
F-0.7368429332167129
sg23
F-0.37679046114291864
sg24
F-0.6978138009013151
sg25
F-0.7907865187423476
sg26
F-0.31571942067030423
sg27
F-0.758233275529322
sg28
F0.388293085087126
sg29
F-0.9934731590369976
sg30
F-0.9519056204743165
sg31
F-0.3889818863250458
sg32
F-0.007592914222884019
sg33
F-0.7851904660229663
sg34
F-0.8121457642552974
sg35
F-0.8456055866769108
sg36
F-0.5662539638174107
sg37
F-0.8214441656800018
sg38
F-0.7610652052025377
sg39
F-0.42626513765889296
sg40
F-0.8813447844007608
sg41
F-0.827355815062722
sg42
F-0.8067683026193904
sg43
F-0.5574592474583897
sg44
F-0.821470823712913
sg45
F-0.47445128231357386
sg46
F-0.8961535797924767
sg47
F-0.7387345623592793
sg48
F-0.4909119855265802
sg49
F-0.4793005676701431
ssS'Derrick_White'
p86
(dp87
g3
F-0.8202848128046064
sg4
F-0.23849818895959934
sg5
F-0.7625911998066667
sg6
F-0.4777682413327332
sg7
F-0.5536445655714641
sg8
F-0.7871376870573876
sg9
F-0.312803358846697
sg10
F-0.6554419790451586
sg11
F-0.8305612982657142
sg12
F-0.9401764947812088
sg13
F-0.7952849407363535
sg14
F-0.1882026749935724
sg15
F-0.2655747184970635
sg16
F-0.8247221592622617
sg17
F-0.4921302163412591
sg18
F0.09146493265476566
sg19
F-0.9540707160706711
sg20
F-0.30325753900224556
sg21
F-0.7753720724939509
sg22
F-0.7081841167510665
sg23
F-0.4180728650266494
sg24
F-0.47533072347096933
sg25
F-0.7106318027557824
sg26
F-0.3336363724731428
sg27
F-0.7407070586142936
sg28
F0.5388224491226243
sg29
F-0.6213424835052272
sg30
F-0.5337215827246521
sg31
F0.005121708308262571
sg32
F-0.02559218907952824
sg33
F-0.783518191642543
sg34
F-0.808520483735996
sg35
F-0.9412935499725015
sg36
F-0.7615783627771078
sg37
F-0.4611341922468646
sg38
F-0.7495167415421915
sg39
F-0.32252595190633127
sg40
F-0.898038619636395
sg41
F-0.935818336263043
sg42
F-0.9387584900960447
sg43
F-0.522111647006587
sg44
F-0.5680731107757052
sg45
F-0.352672945272301
sg46
F-0.793279737859897
sg47
F-0.2465434446901694
sg48
F-0.5042726569557108
sg49
F-0.4898250688399549
ssS'Jordan_Bell'
p88
(dp89
g3
F-0.6959234300341601
sg4
F-0.09079075780831712
sg5
F-0.7429409664549897
sg6
F-0.5658404850065664
sg7
F-0.2623856245905698
sg8
F-0.5275268371627231
sg9
F-0.30293374221387515
sg10
F-0.7466118635891434
sg11
F-0.9470078783356969
sg12
F-0.8468645781865383
sg13
F-0.6592778892462916
sg14
F-0.26098303670452383
sg15
F-0.2853234455155252
sg16
F-0.7152199586505269
sg17
F-0.39798026792585595
sg18
F0.12762444301201872
sg19
F-0.981429185263106
sg20
F-0.12499737102229665
sg21
F-0.7848980562190497
sg22
F-0.7465546823726263
sg23
F-0.35315307904966975
sg24
F-0.8382989494143243
sg25
F-0.6666272665634152
sg26
F-0.3190087687160793
sg27
F-0.7278437415919674
sg28
F0.12178546637364657
sg29
F-0.9500812728300163
sg30
F-0.8872098967831021
sg31
F-0.5612924447253645
sg32
F-0.03256318990308885
sg33
F-0.7639494670088961
sg34
F-0.7615117811918839
sg35
F-0.774419884535689
sg36
F-0.470343314569849
sg37
F-0.8558708323301345
sg38
F-0.7296858021352008
sg39
F-0.5975110618036522
sg40
F-0.9043933545867537
sg41
F-0.7463027965023056
sg42
F-0.8505448538164061
sg43
F-0.4553890846991645
sg44
F-0.8928422490778383
sg45
F-0.4023969630348614
sg46
F-0.817855369350439
sg47
F-0.7992262445146707
sg48
F-0.4961520141018323
sg49
F-0.48152010895058667
ssS'Abdel_Nader'
p90
(dp91
g3
F-0.5610276030453423
sg4
F-0.45718039082667444
sg5
F-0.7683452182165506
sg6
F-0.32717973742465617
sg7
F-0.619963644822165
sg8
F-0.5608000493118025
sg9
F-0.32756717280730063
sg10
F-0.8940837949539696
sg11
F-0.6938032367967061
sg12
F-0.9584519071336318
sg13
F-0.5350234763477958
sg14
F-0.2899955118524622
sg15
F-0.3128714389938917
sg16
F-0.8762019554424046
sg17
F-0.47582895687344706
sg18
F0.026446603482030703
sg19
F-0.8548511348292104
sg20
F-0.378751820539968
sg21
F-0.781489234117655
sg22
F-0.8973192300621626
sg23
F-0.45468010599153896
sg24
F-0.1617159036864289
sg25
F-0.7966226236216735
sg26
F-0.34718756681978696
sg27
F-0.7680352280692053
sg28
F-0.0572369433740368
sg29
F-0.8080891786575308
sg30
F-0.542533632398531
sg31
F-0.4454829428542477
sg32
F-0.09513606066868827
sg33
F-0.7795224148682531
sg34
F-0.9134940833873402
sg35
F-0.9452295966719161
sg36
F-0.5062571997172584
sg37
F-0.8702924159536063
sg38
F-0.7681727251797271
sg39
F-0.441054565278841
sg40
F-0.9597386407219229
sg41
F-0.9396900114486735
sg42
F-0.952818567706471
sg43
F-0.6603017447506155
sg44
F-0.7913198436021102
sg45
F-0.35410498154732184
sg46
F-0.8541803337039283
sg47
F-0.8049340308239407
sg48
F-0.5121166422771091
sg49
F-0.5038067221037643
ssS'Trey_McKinney-Jones'
p92
(dp93
g3
F-0.8359490580062633
sg4
F-0.07822674906039889
sg5
F-0.794129851216224
sg6
F-0.4935687638675979
sg7
F-0.5910119357838509
sg8
F-0.8150167898930181
sg9
F-0.3510553647420434
sg10
F-0.7896728815627972
sg11
F-0.7187977477236497
sg12
F-0.9304913192961387
sg13
F-0.813638164736899
sg14
F-0.30053848988083715
sg15
F-0.2878428348292143
sg16
F-0.8624026141325869
sg17
F-0.45973409020939915
sg18
F0.0639775617066387
sg19
F-0.9275560715448392
sg20
F-0.3117023371128034
sg21
F-0.8074456848906213
sg22
F-0.8081323748271187
sg23
F-0.41287724003581444
sg24
F-0.02796269251143587
sg25
F-0.7668580974261845
sg26
F-0.3530057755094631
sg27
F-0.8259032989488531
sg28
F0.2032313110984029
sg29
F-0.9604049119141362
sg30
F-0.8217217772068801
sg31
F-0.5728386524118712
sg32
F-0.0576489788996811
sg33
F-0.7962160669331542
sg34
F-0.8665737796713848
sg35
F-0.956746559008422
sg36
F-0.7926956170146852
sg37
F-0.727803549242945
sg38
F-0.8283927235676478
sg39
F-0.44494601223353986
sg40
F-0.9264731404973812
sg41
F-0.952804528181858
sg42
F-0.9290934402646243
sg43
F-0.6849425058976543
sg44
F-0.8710803251948619
sg45
F-0.40374025362130395
sg46
F-0.8572315417496641
sg47
F-0.600918057048272
sg48
F-0.5120702077720243
sg49
F-0.5030771234282764
ssS'Jamil_Wilson'
p94
(dp95
g3
F-0.812274896157816
sg4
F-0.40736590416746693
sg5
F-0.8358755434175913
sg6
F-0.4940875194385975
sg7
F-0.675342936585203
sg8
F-0.7489116487881922
sg9
F-0.3509810392910077
sg10
F-0.8472650488217993
sg11
F-0.8150497454466776
sg12
F-0.9486463676607406
sg13
F-0.7820461195947869
sg14
F-0.4267419713065207
sg15
F-0.2934002475676821
sg16
F-0.8484422065719014
sg17
F-0.5652427863312403
sg18
F0.1031512982961184
sg19
F-0.9493257557230894
sg20
F-0.43645943997786685
sg21
F-0.8510648806782092
sg22
F-0.8771409815137694
sg23
F-0.5258793182096863
sg24
F-0.28465869284407913
sg25
F-0.7830299829685329
sg26
F-0.34529462583974857
sg27
F-0.7341281291503102
sg28
F0.26009403599413394
sg29
F-0.9375174361772187
sg30
F-0.8579050006111419
sg31
F-0.35858278367724034
sg32
F-0.04860445026561463
sg33
F-0.7836001960792862
sg34
F-0.8865497876945019
sg35
F-0.9089881789175883
sg36
F-0.7212630750754042
sg37
F-0.8391856901467258
sg38
F-0.741299592212638
sg39
F-0.47717304546001466
sg40
F-0.9531494235412981
sg41
F-0.8991053823499756
sg42
F-0.9475324205219984
sg43
F-0.6797068495136745
sg44
F-0.7803808764411821
sg45
F-0.4947565949603521
sg46
F-0.9006542705816576
sg47
F-0.7674676166844623
sg48
F-0.5046091610414969
sg49
F-0.49885621676480474
ssS'Lauri_Markkanen'
p96
(dp97
g3
F-0.6795670032131145
sg4
F-0.0881437211402408
sg5
F-0.7369493715190605
sg6
F-0.48449212283411763
sg7
F-0.40439751026893883
sg8
F-0.6087444349742551
sg9
F-0.32161294626704884
sg10
F-0.7265925258554686
sg11
F-0.736937833577859
sg12
F-0.8920133600216014
sg13
F-0.6310075411481311
sg14
F-0.15734639281936583
sg15
F-0.2819665642437756
sg16
F-0.7746888588597635
sg17
F-0.4316206875887063
sg18
F0.09724019231453133
sg19
F-0.938601889427087
sg20
F-0.23339041528026958
sg21
F-0.7636620665040276
sg22
F-0.7468936739216636
sg23
F-0.3806366313710819
sg24
F-0.310369965683964
sg25
F-0.7326393981654034
sg26
F-0.3427297330821349
sg27
F-0.7789313162610675
sg28
F0.4810830179531871
sg29
F-0.7889005271511507
sg30
F-0.7121075252074167
sg31
F0.22895285840730556
sg32
F-0.04020914742222802
sg33
F-0.8153903800932921
sg34
F-0.7983474820919735
sg35
F-0.8860686236646738
sg36
F-0.5656356268777883
sg37
F-0.8287513456961365
sg38
F-0.7847873056964215
sg39
F-0.22950235770971372
sg40
F-0.9125013633034604
sg41
F-0.8728925507097972
sg42
F-0.893254298000668
sg43
F-0.5569051509146541
sg44
F-0.4093228972366081
sg45
F-0.2938429844925131
sg46
F-0.818697611198189
sg47
F-0.765515795801346
sg48
F-0.51108091522866
sg49
F-0.49519840315294805
ssS'OG_Anunoby'
p98
(dp99
g3
F-0.7310583104069077
sg4
F-0.08150784897254769
sg5
F-0.7374598468042425
sg6
F-0.38707057927541766
sg7
F-0.4225463368564157
sg8
F-0.6605614469067708
sg9
F-0.2970074088331678
sg10
F-0.7268273019371239
sg11
F-0.8737146909422049
sg12
F-0.8511944833756641
sg13
F-0.6841525780719331
sg14
F-0.25874315391778296
sg15
F-0.26375959327937143
sg16
F-0.783931694947292
sg17
F-0.38275702584797994
sg18
F0.1524983957644736
sg19
F-0.9597524827351185
sg20
F-0.14322543690657508
sg21
F-0.7710873627718859
sg22
F-0.7408326645078929
sg23
F-0.33369489903616506
sg24
F-0.5714440115834168
sg25
F-0.7510816384819308
sg26
F-0.3184118655084658
sg27
F-0.7097535258048848
sg28
F0.40348959473700186
sg29
F-0.5392161836428213
sg30
F-0.3386568802132279
sg31
F0.3825882280402442
sg32
F-0.00213941338970436
sg33
F-0.7623962430050558
sg34
F-0.777707364069124
sg35
F-0.8975650634342088
sg36
F-0.6286233738411166
sg37
F-0.8138975666309325
sg38
F-0.7198870160456812
sg39
F-0.11988099798348403
sg40
F-0.9060476348418481
sg41
F-0.8852697435776988
sg42
F-0.8509488907304373
sg43
F-0.5169096219573475
sg44
F-0.3211862672594325
sg45
F-0.39062431289955235
sg46
F-0.8525298113183798
sg47
F-0.7509438394518447
sg48
F-0.49599040434888453
sg49
F-0.4811538913893082
ssS'Andrew_White'
p100
(dp101
g3
F-0.7304580221806493
sg4
F-0.251037885700897
sg5
F-0.7467977656390811
sg6
F-0.26857535656962084
sg7
F-0.6305170682050543
sg8
F-0.6984098007829639
sg9
F-0.3105891781439925
sg10
F-0.8409055312153402
sg11
F-0.6018352599607287
sg12
F-0.9071482585601586
sg13
F-0.6889822443668321
sg14
F-0.236654044350385
sg15
F-0.2615315015016606
sg16
F-0.828028960651418
sg17
F-0.386281059937196
sg18
F0.019593349801545756
sg19
F-0.8536423264302948
sg20
F-0.27825456679679555
sg21
F-0.7588430683050915
sg22
F-0.8561705469413151
sg23
F-0.35448819771059337
sg24
F0.10220784235933685
sg25
F-0.8396854098192583
sg26
F-0.3256387449202098
sg27
F-0.725053905607272
sg28
F0.3388272428033945
sg29
F-0.8748981662794444
sg30
F-0.8487915788152758
sg31
F-0.17007693454061423
sg32
F-0.046605229975403735
sg33
F-0.7822298734135826
sg34
F-0.8931554392087865
sg35
F-0.9382736122845112
sg36
F-0.6687316344651604
sg37
F-0.8674259815892988
sg38
F-0.7299623516017912
sg39
F-0.506860201350075
sg40
F-0.9511395136727098
sg41
F-0.9295971053778166
sg42
F-0.9034065339526391
sg43
F-0.6900872598599838
sg44
F-0.7136070591741204
sg45
F-0.2919225198207126
sg46
F-0.9068857045350381
sg47
F-0.8182092841121549
sg48
F-0.4995873100326134
sg49
F-0.4851444701000555
ssS'Frank_Ntilikina'
p102
(dp103
g3
F-0.8374181181052811
sg4
F-0.1528644030128758
sg5
F-0.7646212838260233
sg6
F-0.46899889369116066
sg7
F-0.5778048912439805
sg8
F-0.8209447391112936
sg9
F-0.31220215701115245
sg10
F-0.7722209634659486
sg11
F-0.8299101319658355
sg12
F-0.9586298132235374
sg13
F-0.812898163834146
sg14
F-0.20048473475809764
sg15
F-0.26081366955568536
sg16
F-0.8259742167901923
sg17
F-0.41922752105552297
sg18
F0.08547647980276066
sg19
F-0.9463212644212419
sg20
F-0.21970813651408316
sg21
F-0.7914429015749405
sg22
F-0.7956665573652442
sg23
F-0.3697190237349194
sg24
F-0.41963165688747656
sg25
F-0.5713536063497758
sg26
F-0.34386667927838116
sg27
F-0.6752310972992334
sg28
F0.4683118458226592
sg29
F-0.30207403102399455
sg30
F-0.03962314689829072
sg31
F0.4194157362873705
sg32
F-0.022536344843248457
sg33
F-0.834307490044184
sg34
F-0.8183000194047815
sg35
F-0.9683796550531174
sg36
F-0.8057977731583982
sg37
F-0.29126261751023197
sg38
F-0.687547370294865
sg39
F0.06245886150714861
sg40
F-0.926046199126282
sg41
F-0.9634261254755497
sg42
F-0.9600041805312501
sg43
F-0.5660783525723224
sg44
F-0.2282016916557313
sg45
F-0.39598848453815777
sg46
F-0.7322338734938318
sg47
F-0.04388304102502548
sg48
F-0.5073696183468017
sg49
F-0.4975787093501349
ssS'Josh_Hart'
p104
(dp105
g3
F-0.7850310360531594
sg4
F-0.2821611041417926
sg5
F-0.8116086019223264
sg6
F-0.38811304766027127
sg7
F-0.5884299219054596
sg8
F-0.7625458614744692
sg9
F-0.3508614451527848
sg10
F-0.7383704343910895
sg11
F-0.7979707250046869
sg12
F-0.9434167326282734
sg13
F-0.7572627533107269
sg14
F-0.3257401641535405
sg15
F-0.2938737221225353
sg16
F-0.8068504996421004
sg17
F-0.4825963973914114
sg18
F0.07815420814757998
sg19
F-0.9398324355387296
sg20
F-0.3390904713713875
sg21
F-0.8155899441486962
sg22
F-0.7693186099123029
sg23
F-0.4110343520851301
sg24
F-0.16555406955322854
sg25
F-0.656677228855749
sg26
F-0.3482574072153973
sg27
F-0.81322413314671
sg28
F0.22284521938818744
sg29
F-0.7646349881974701
sg30
F-0.615636773415353
sg31
F-0.20825582362590583
sg32
F-0.05834781893633452
sg33
F-0.7757516524711302
sg34
F-0.8717761663835965
sg35
F-0.9488161144355499
sg36
F-0.7338471504887092
sg37
F-0.7262066984785531
sg38
F-0.8183320517162911
sg39
F-0.3184476827888649
sg40
F-0.8821826625226257
sg41
F-0.9423222099523356
sg42
F-0.9459349041130884
sg43
F-0.6732806871894155
sg44
F-0.632315862773275
sg45
F-0.47125141219410244
sg46
F-0.8239530780471528
sg47
F-0.6203061517638208
sg48
F-0.507706892481684
sg49
F-0.49949369900538665
ssS'Tyler_Dorsey'
p106
(dp107
g3
F-0.8154896969107618
sg4
F-0.2363496464168202
sg5
F-0.8087909114740608
sg6
F-0.4255124677113979
sg7
F-0.6296776389982509
sg8
F-0.8021424769658627
sg9
F-0.34977928576454526
sg10
F-0.6837969486387683
sg11
F-0.8142459343244646
sg12
F-0.9756404483692243
sg13
F-0.7907968394907453
sg14
F-0.3385269218367822
sg15
F-0.29097471036676775
sg16
F-0.8433953048242075
sg17
F-0.48008178255866135
sg18
F0.06410766834299778
sg19
F-0.9507319705537205
sg20
F-0.3152672405474296
sg21
F-0.8092597013359871
sg22
F-0.7304164071922599
sg23
F-0.3962845544286137
sg24
F-0.23829973838867224
sg25
F-0.6937007944446549
sg26
F-0.3468824996238414
sg27
F-0.8040156354034769
sg28
F0.32651061919128793
sg29
F-0.8287318230325551
sg30
F-0.6304526492729898
sg31
F-0.19351129582334664
sg32
F-0.05982998484361991
sg33
F-0.8039869263926637
sg34
F-0.8580589409203401
sg35
F-0.9622366749098281
sg36
F-0.77772637182059
sg37
F-0.7678286880907029
sg38
F-0.8103045912759795
sg39
F-0.2509973722419621
sg40
F-0.8664203818955707
sg41
F-0.9574380050025554
sg42
F-0.9745693599557631
sg43
F-0.6610204358680332
sg44
F-0.6724341330777818
sg45
F-0.4752663701924976
sg46
F-0.84487651550537
sg47
F-0.6684646805019488
sg48
F-0.5062572285826192
sg49
F-0.4984684367916844
ssS'Chris_Boucher'
p108
(dp109
g3
F-0.7253844394864223
sg4
F-0.30456798193388496
sg5
F-0.7990392993792496
sg6
F-0.6060832631780901
sg7
F-0.4473302246000124
sg8
F-0.6252114350562312
sg9
F-0.30802729761251957
sg10
F-0.7468732361797127
sg11
F-0.8478300502109715
sg12
F-0.8039398992482891
sg13
F-0.6867609856598608
sg14
F-0.3422048018520306
sg15
F-0.28218657704139694
sg16
F-0.840857731485075
sg17
F-0.47212052342751637
sg18
F0.17226105590497442
sg19
F-0.9541228182611072
sg20
F-0.28651709483304066
sg21
F-0.8132335443664929
sg22
F-0.7353184283799132
sg23
F-0.4073399086769531
sg24
F-0.47641529737167965
sg25
F-0.7901618882076598
sg26
F-0.3252185370375168
sg27
F-0.6983070746486895
sg28
F0.29975741239280823
sg29
F-0.8738933599167851
sg30
F-0.8436115698468096
sg31
F-0.2909905438524103
sg32
F-0.013197704129899544
sg33
F-0.7785340726144727
sg34
F-0.8449164811181425
sg35
F-0.8575314413044502
sg36
F-0.5829158807908725
sg37
F-0.8457600787562172
sg38
F-0.7015202157222631
sg39
F-0.5341060050035135
sg40
F-0.8854058658865863
sg41
F-0.8412156489416651
sg42
F-0.802555048975023
sg43
F-0.6067841440993882
sg44
F-0.7643457561997756
sg45
F-0.4546141943103596
sg46
F-0.8861987484856324
sg47
F-0.7733190319329002
sg48
F-0.4974288011694532
sg49
F-0.4830544662736306
ssS'Tyler_Lydon'
p110
(dp111
g3
F-0.7030213533098577
sg4
F-0.13623624436276344
sg5
F-0.7668109466946726
sg6
F-0.633703113706549
sg7
F-0.5708118915038121
sg8
F-0.5874013463506985
sg9
F-0.28443984814448203
sg10
F-0.7872375424364685
sg11
F-0.9015763255123733
sg12
F-0.9111045046944933
sg13
F-0.6641137308109379
sg14
F-0.4141290002500275
sg15
F-0.2605911146396031
sg16
F-0.8208049369240005
sg17
F-0.413247144507303
sg18
F0.12485005596318219
sg19
F-0.9651905274171344
sg20
F-0.17956271901394277
sg21
F-0.8014171095186736
sg22
F-0.8096315172063558
sg23
F-0.3692597045987739
sg24
F-0.6636948055111341
sg25
F-0.7951729869903877
sg26
F-0.2965377432624873
sg27
F-0.6681395481774579
sg28
F0.12188122395163392
sg29
F-0.8463499410232136
sg30
F-0.8463499410232136
sg31
F-0.33017397966860873
sg32
F-0.009452962744267213
sg33
F-0.7560586977226993
sg34
F-0.8016204192775384
sg35
F-0.8354610810197254
sg36
F-0.538482434329583
sg37
F-0.8632280003828416
sg38
F-0.6719506415291813
sg39
F-0.4762584368396724
sg40
F-0.9233330950807354
sg41
F-0.8161793090495109
sg42
F-0.903585611837069
sg43
F-0.6053816910620597
sg44
F-0.7224974627660881
sg45
F-0.506958016574433
sg46
F-0.8937905772719468
sg47
F-0.8100321649566111
sg48
F-0.48172947708918534
sg49
F-0.47119784062286024
ssS'Jamel_Artis'
p112
(dp113
g3
F-0.5513230603876419
sg4
F-0.2960478757953714
sg5
F-0.8679751017538211
sg6
F-0.54756257665081
sg7
F-0.6425733895064363
sg8
F-0.5708206213749798
sg9
F-0.34995786484625085
sg10
F-0.73176473589703
sg11
F-0.8385501957074591
sg12
F-0.9709060460899351
sg13
F-0.525724888368658
sg14
F-0.5238435996216867
sg15
F-0.32770105088980744
sg16
F-0.847129887360929
sg17
F-0.5409799375244905
sg18
F0.06768176954512496
sg19
F-0.9622945569356082
sg20
F-0.39889784798981404
sg21
F-0.8596763625028658
sg22
F-0.7641797980370344
sg23
F-0.46416437675301614
sg24
F-0.2194430466930619
sg25
F-0.7183946211088913
sg26
F-0.33439434782334476
sg27
F-0.8395269687375302
sg28
F0.06905279019691454
sg29
F-0.9392977860476286
sg30
F-0.680663967622956
sg31
F-0.6493997245873137
sg32
F-0.09540219833253745
sg33
F-0.7865549948652021
sg34
F-0.9056805448182129
sg35
F-0.9646039758217543
sg36
F-0.5159270362093963
sg37
F-0.8387389194132835
sg38
F-0.8379677389048065
sg39
F-0.45462596745340134
sg40
F-0.86280848816622
sg41
F-0.961865185502922
sg42
F-0.9694297918788533
sg43
F-0.7945304464035808
sg44
F-0.8790482896852015
sg45
F-0.63308064211104
sg46
F-0.8815408563403793
sg47
F-0.7514088442918938
sg48
F-0.5034231331306855
sg49
F-0.4959074674438608
ssS'London_Perrantes'
p114
(dp115
g3
F-0.8938971973097809
sg4
F-0.3330143994452773
sg5
F-0.8045965585387912
sg6
F-0.40475703555822834
sg7
F-0.7095490799087079
sg8
F-0.88758338539796
sg9
F-0.3425524033770908
sg10
F-0.8501089892399644
sg11
F-0.8268445583177398
sg12
F-0.9766093840936181
sg13
F-0.88144097776951
sg14
F-0.4014831991408997
sg15
F-0.28890880700919236
sg16
F-0.8425636317004267
sg17
F-0.502994495238027
sg18
F0.08269817614755749
sg19
F-0.9395845682236001
sg20
F-0.35692145079014287
sg21
F-0.8273864860989074
sg22
F-0.8795874127794943
sg23
F-0.4641550157841269
sg24
F-0.4064746579688776
sg25
F-0.7611485049045691
sg26
F-0.341646244881496
sg27
F-0.639459782011764
sg28
F-0.11533822878259625
sg29
F-0.9521323331229559
sg30
F-0.951541374272622
sg31
F-0.5786986534229225
sg32
F-0.051832829868766576
sg33
F-0.7810323808084499
sg34
F-0.8650119903151912
sg35
F-0.9775723903611727
sg36
F-0.8714695876709536
sg37
F-0.6402328803565637
sg38
F-0.6459021123077634
sg39
F-0.5463316433148826
sg40
F-0.9515666794184329
sg41
F-0.9753301799697647
sg42
F-0.9760900702343337
sg43
F-0.6697513679516526
sg44
F-0.8353695928228292
sg45
F-0.4965959262693924
sg46
F-0.8485726988373421
sg47
F-0.5116524223794279
sg48
F-0.5076269706922589
sg49
F-0.49849923065240115
ssS'Kobi_Simmons'
p116
(dp117
g3
F-0.847740245944128
sg4
F-0.21412675189912286
sg5
F-0.7949082999541116
sg6
F-0.40970025540766497
sg7
F-0.5759072494403426
sg8
F-0.8229136495714533
sg9
F-0.33366818205951476
sg10
F-0.7597726009707527
sg11
F-0.7988100395717286
sg12
F-0.9447940781620774
sg13
F-0.8285181342928544
sg14
F-0.30778548769027925
sg15
F-0.2749010145201261
sg16
F-0.790298512255753
sg17
F-0.4508570363078314
sg18
F0.07879377142994408
sg19
F-0.9344670797657921
sg20
F-0.28626731573339054
sg21
F-0.8058386489240424
sg22
F-0.7942310358394495
sg23
F-0.39029614174768806
sg24
F-0.2778126442118063
sg25
F-0.6693563747070699
sg26
F-0.3364059165582054
sg27
F-0.7566717744693509
sg28
F0.41077436764184705
sg29
F-0.9424676995239697
sg30
F-0.9298308809201749
sg31
F-0.359050705427324
sg32
F-0.03931727909025427
sg33
F-0.7791892240756049
sg34
F-0.8604412201883196
sg35
F-0.9552831808446968
sg36
F-0.8030234267888248
sg37
F-0.524377095578434
sg38
F-0.7618132095672933
sg39
F-0.40272006916682596
sg40
F-0.912711822314034
sg41
F-0.9492462601854456
sg42
F-0.9424356667497442
sg43
F-0.6558926681777064
sg44
F-0.7587260107205391
sg45
F-0.45470270774943516
sg46
F-0.8006184997870043
sg47
F-0.3064125617148695
sg48
F-0.5043958055834048
sg49
F-0.4909190407992425
ssS'Isaiah_Hicks'
p118
(dp119
g3
F-0.6904713835512624
sg4
F-0.18292657035499105
sg5
F-0.7179714811763178
sg6
F-0.9278365131561362
sg7
F-0.40407755479213026
sg8
F-0.5039296990479902
sg9
F-0.2740258126939855
sg10
F-0.6725751869196299
sg11
F-0.9793932993890063
sg12
F-0.7244980109661777
sg13
F-0.6543594557943759
sg14
F-0.12649065531122028
sg15
F-0.28552149394775944
sg16
F-0.754435156611374
sg17
F-0.46555083177106726
sg18
F0.2046759831503548
sg19
F-0.9968555178992247
sg20
F-0.20266710576019628
sg21
F-0.7624254470350098
sg22
F-0.6425768856132766
sg23
F-0.41321785070863476
sg24
F-0.9422104169488704
sg25
F-0.7993022169975419
sg26
F-0.31679313851693075
sg27
F-0.5862196497021548
sg28
F0.08865973832634272
sg29
F-0.9244574702376699
sg30
F-0.9058262164396923
sg31
F-0.3946201067948481
sg32
F-0.005680201325121971
sg33
F-0.7765093568701666
sg34
F-0.7211159632770932
sg35
F-0.7535279267332985
sg36
F-0.44399931028456086
sg37
F-0.8304334185274024
sg38
F-0.5903470560821407
sg39
F-0.5901390647921102
sg40
F-0.8735524223404888
sg41
F-0.7245048685401588
sg42
F-0.7193698546611194
sg43
F-0.28875699720220516
sg44
F-0.7935483480328427
sg45
F-0.26815029659121153
sg46
F-0.8606276780149154
sg47
F-0.7727405019322
sg48
F-0.5110986065389558
sg49
F-0.4760015861057401
ssS'Sindarius_Thornwell'
p120
(dp121
g3
F-0.5462602423074923
sg4
F-0.3257033784649477
sg5
F-0.857377451192337
sg6
F-0.5071235574457503
sg7
F-0.6335378779150668
sg8
F-0.5604213848764273
sg9
F-0.34101317676612103
sg10
F-0.7236716657427772
sg11
F-0.8353484219556403
sg12
F-0.9640153888188017
sg13
F-0.5186902687696676
sg14
F-0.5059141698805474
sg15
F-0.319577062928045
sg16
F-0.8545247055102402
sg17
F-0.5281368519649392
sg18
F0.06997131285197629
sg19
F-0.9562388937258063
sg20
F-0.3849056420389053
sg21
F-0.8493937343690902
sg22
F-0.7583381723699353
sg23
F-0.4505864322293267
sg24
F-0.2545254018278808
sg25
F-0.7375264144179093
sg26
F-0.3285117272766235
sg27
F-0.8426129646928596
sg28
F0.07287216189936754
sg29
F-0.9389499051739436
sg30
F-0.6789582834201269
sg31
F-0.6139505751485685
sg32
F-0.0867236666862859
sg33
F-0.7789922662082136
sg34
F-0.9011385574665306
sg35
F-0.9584514385739763
sg36
F-0.5047116808814684
sg37
F-0.8445563534171608
sg38
F-0.8419648313217221
sg39
F-0.447140151696865
sg40
F-0.8606707430731878
sg41
F-0.9547780885252104
sg42
F-0.9629792704114079
sg43
F-0.7779531611856092
sg44
F-0.8657155800572807
sg45
F-0.6133015831412495
sg46
F-0.8864252544457318
sg47
F-0.7699115664753711
sg48
F-0.49987966331889205
sg49
F-0.4920465904379719
ssS'Josh_Jackson'
p122
(dp123
g3
F-0.754028820634984
sg4
F-0.08971753643784379
sg5
F-0.6656072609714025
sg6
F-0.34542254351366597
sg7
F-0.4901320140439943
sg8
F-0.6820120387414571
sg9
F-0.2731300587520853
sg10
F-0.6143688485415544
sg11
F-0.8446775687417649
sg12
F-0.8854258943971727
sg13
F-0.7186962323272259
sg14
F-0.057870684110911494
sg15
F-0.23546426336111081
sg16
F-0.8321630832629321
sg17
F-0.3789288187612618
sg18
F0.13178677901348068
sg19
F-0.9475751732654412
sg20
F-0.13811290998571363
sg21
F-0.7024660241126086
sg22
F-0.6525879244952894
sg23
F-0.3219740659635369
sg24
F-0.5871335459612628
sg25
F-0.7308072863255337
sg26
F-0.3173813117958592
sg27
F-0.7306512956110514
sg28
F0.47530467488061223
sg29
F0.16370020713987188
sg30
F0.35397865414364726
sg31
F0.7177968375680628
sg32
F0.01879697554774175
sg33
F-0.7159012738465146
sg34
F-0.7180320877059613
sg35
F-0.8919628230575898
sg36
F-0.6459916436925739
sg37
F-0.7305486361860947
sg38
F-0.7376046774656273
sg39
F0.34825814919680903
sg40
F-0.9014814564198991
sg41
F-0.8794209641965187
sg42
F-0.8918797860933739
sg43
F-0.37974433827653675
sg44
F0.20889260579588947
sg45
F-0.22442190701830186
sg46
F-0.7957385949425404
sg47
F-0.6600150858622751
sg48
F-0.4936300290614691
sg49
F-0.4807592721039069
ssS'Alex_Caruso'
p124
(dp125
g3
F-0.8617828234927986
sg4
F-0.12801044612391876
sg5
F-0.7781281348267396
sg6
F-0.629527240143782
sg7
F-0.6966361474599188
sg8
F-0.8462605059415009
sg9
F-0.3461144889549975
sg10
F-0.8075035366065471
sg11
F-0.820313001765696
sg12
F-0.9591637172723689
sg13
F-0.8430810257447716
sg14
F-0.27118138770337513
sg15
F-0.2986407983449113
sg16
F-0.8078812509915692
sg17
F-0.475543299892596
sg18
F0.03297334038115634
sg19
F-0.9591955058729903
sg20
F-0.2761063169354441
sg21
F-0.809965930598682
sg22
F-0.8306940007859417
sg23
F-0.4273428532593528
sg24
F-0.3837416975055257
sg25
F-0.6331038759640734
sg26
F-0.36118420173730065
sg27
F-0.7552744479425623
sg28
F0.35288713588892506
sg29
F-0.908495093263467
sg30
F-0.8379121893942963
sg31
F-0.4161042341815082
sg32
F-0.07934625934904191
sg33
F-0.8040668743974382
sg34
F-0.8189326289537494
sg35
F-0.9635364374525501
sg36
F-0.8253192609453486
sg37
F-0.44021139858568054
sg38
F-0.7561511523769114
sg39
F-0.36723161209666655
sg40
F-0.9346316942700206
sg41
F-0.9602771190373494
sg42
F-0.9598664113920785
sg43
F-0.5973975434455518
sg44
F-0.758564285517099
sg45
F-0.41771054521124773
sg46
F-0.7654932908494174
sg47
F-0.24154160425742027
sg48
F-0.516077405355232
sg49
F-0.5063470366930174
ssS'Luke_Kornet'
p126
(dp127
g3
F-0.659502263146112
sg4
F-0.41629374114754397
sg5
F-0.8223492850649992
sg6
F-0.48598044685555936
sg7
F-0.5175811241240709
sg8
F-0.4816472716945911
sg9
F-0.32555494876083046
sg10
F-0.833417217518544
sg11
F-0.7546555050190386
sg12
F-0.8931658521336524
sg13
F-0.608960743494191
sg14
F-0.3268351003452758
sg15
F-0.28932283290736843
sg16
F-0.8185060558973067
sg17
F-0.523830742456509
sg18
F0.09324350113386301
sg19
F-0.9291226384830156
sg20
F-0.40637448178158814
sg21
F-0.8332614721330112
sg22
F-0.8527935065113256
sg23
F-0.4887850747546809
sg24
F-0.14871130057445417
sg25
F-0.5594281027993261
sg26
F-0.34583587448655123
sg27
F-0.8168709921849482
sg28
F0.11906217357542298
sg29
F-0.7687983570855516
sg30
F-0.7180680270634494
sg31
F-0.2209324299666004
sg32
F-0.04827262894259176
sg33
F-0.7584321551959707
sg34
F-0.8932266465819836
sg35
F-0.7685991761179582
sg36
F-0.4281014392640703
sg37
F-0.7890789598213046
sg38
F-0.8174464761293824
sg39
F-0.4682516983210581
sg40
F-0.9435221639041799
sg41
F-0.7352048483418396
sg42
F-0.8886470054986265
sg43
F-0.7317592620461346
sg44
F-0.6638660571179742
sg45
F-0.48641476706517317
sg46
F-0.7666191864648925
sg47
F-0.6861083549694966
sg48
F-0.4968616266111089
sg49
F-0.4849551255147485
ssS'Omari_Johnson'
p128
(dp129
g3
F-0.6890710872340564
sg4
F-0.04839024140191241
sg5
F-0.671702218124377
sg6
F-0.5807140413520747
sg7
F-0.5873962547873945
sg8
F-0.5481156341225213
sg9
F-0.2627415536224338
sg10
F-0.818430531708406
sg11
F-0.8208851649397149
sg12
F-0.8805959776397662
sg13
F-0.6509742994663563
sg14
F-0.28873295066835275
sg15
F-0.22244380197807564
sg16
F-0.6567781132472743
sg17
F-0.35555770606395826
sg18
F0.03654731206033657
sg19
F-0.9502001111537547
sg20
F-0.11921029176943149
sg21
F-0.737635668646526
sg22
F-0.8146753961575963
sg23
F-0.32153886266997017
sg24
F-0.3664311466448851
sg25
F-0.8730034368684296
sg26
F-0.29582275618128334
sg27
F-0.8737486593181267
sg28
F0.05893701782377074
sg29
F-0.778512708603556
sg30
F-0.6936380402881231
sg31
F-0.2753657498254247
sg32
F-0.0024987060927488254
sg33
F-0.7596316579091644
sg34
F-0.7215021069706223
sg35
F-0.8085432324453903
sg36
F-0.4976143196794467
sg37
F-0.8214292511929934
sg38
F-0.8751545184471721
sg39
F-0.38392719999505437
sg40
F-0.9338663674054326
sg41
F-0.7840037831156563
sg42
F-0.873995202023985
sg43
F-0.5177209045805893
sg44
F-0.674954671994405
sg45
F-0.3386060695203042
sg46
F-0.9343709085579782
sg47
F-0.7332094234451917
sg48
F-0.4920930700060159
sg49
F-0.4826390946471492
ssS'Semi_Ojeleye'
p130
(dp131
g3
F-0.7509315183497556
sg4
F-0.0742216627715065
sg5
F-0.765325312939066
sg6
F-0.4584347599033069
sg7
F-0.48124005899664224
sg8
F-0.6681762537396282
sg9
F-0.308337319822612
sg10
F-0.7844662065761269
sg11
F-0.8307874216017215
sg12
F-0.8423157932731401
sg13
F-0.7142624483830929
sg14
F-0.34240414692685517
sg15
F-0.26507454342195697
sg16
F-0.7990571275965401
sg17
F-0.3869210118861333
sg18
F0.149963030619061
sg19
F-0.9510649439620227
sg20
F-0.17157872779150468
sg21
F-0.7953075909209593
sg22
F-0.8029051549586685
sg23
F-0.3397407103188866
sg24
F-0.3909213341293334
sg25
F-0.7865603363633094
sg26
F-0.3187972121419538
sg27
F-0.7972073721100672
sg28
F0.3597104501403567
sg29
F-0.7738110359739214
sg30
F-0.6710656348047511
sg31
F-0.10237394185351818
sg32
F-0.004136528853364515
sg33
F-0.7573916383497755
sg34
F-0.8142603689770432
sg35
F-0.8794385649790352
sg36
F-0.6303700833287907
sg37
F-0.8115813846947129
sg38
F-0.8009777499765343
sg39
F-0.2859290738089401
sg40
F-0.913222795111363
sg41
F-0.8659984186908662
sg42
F-0.8404210668132519
sg43
F-0.6042857112355453
sg44
F-0.6443410764790821
sg45
F-0.4350731328372669
sg46
F-0.8915583446489129
sg47
F-0.7349309211143646
sg48
F-0.49454290953925484
sg49
F-0.48304438382709053
ssS'Jawun_Evans'
p132
(dp133
g3
F-0.841611033530376
sg4
F-0.17332034268848667
sg5
F-0.7721608360150403
sg6
F-0.47565985385275045
sg7
F-0.5325487396503723
sg8
F-0.8193172416142996
sg9
F-0.32019085775977474
sg10
F-0.76307293210687
sg11
F-0.8497243346261121
sg12
F-0.9225141038406507
sg13
F-0.822782824186248
sg14
F-0.3032706626548571
sg15
F-0.26731852442404425
sg16
F-0.812017658491548
sg17
F-0.45240894345541094
sg18
F0.11962397277801992
sg19
F-0.9561967347454265
sg20
F-0.25133806159418726
sg21
F-0.7984058292372979
sg22
F-0.7839276865129289
sg23
F-0.40174362068747355
sg24
F-0.4489556244597455
sg25
F-0.7141300988180376
sg26
F-0.3305640764899056
sg27
F-0.729657108818676
sg28
F0.39527388812486247
sg29
F-0.6338851359794889
sg30
F-0.5188094951215463
sg31
F0.2905622426336849
sg32
F-0.017548965754481227
sg33
F-0.7756804378698661
sg34
F-0.8159641012696135
sg35
F-0.9533533848774667
sg36
F-0.7949644184078427
sg37
F-0.5152110013727262
sg38
F-0.7299851075635531
sg39
F-0.18535249763578487
sg40
F-0.9158819606066201
sg41
F-0.9485059405278669
sg42
F-0.9208539822397738
sg43
F-0.5804706781674706
sg44
F-0.40187934443084306
sg45
F-0.43019501279358274
sg46
F-0.8194989576865443
sg47
F-0.29863311091495487
sg48
F-0.5030259290141496
sg49
F-0.48809064099271393
ssS'Caleb_Swanigan'
p134
(dp135
g3
F-0.6765031864922705
sg4
F-0.018234027024513846
sg5
F-0.7224798663870691
sg6
F-0.7072889082832655
sg7
F-0.3377904765203128
sg8
F-0.5387887519565778
sg9
F-0.28068154030599163
sg10
F-0.7067428660504922
sg11
F-0.8859250078651526
sg12
F-0.868432393604819
sg13
F-0.6253006181313127
sg14
F-0.24717361093681803
sg15
F-0.2595923378523951
sg16
F-0.7658847145329805
sg17
F-0.33941757960344165
sg18
F0.11699017368340976
sg19
F-0.9645282579608849
sg20
F-0.05981428973494331
sg21
F-0.759717162252488
sg22
F-0.7197902875013216
sg23
F-0.2922757211104472
sg24
F-0.6819409664647159
sg25
F-0.7392764740702655
sg26
F-0.30236385695380563
sg27
F-0.8099727711412334
sg28
F0.37092444500353955
sg29
F-0.8506506652169568
sg30
F-0.7815109114094468
sg31
F0.010243445142811333
sg32
F-0.010813386326703079
sg33
F-0.760732517598722
sg34
F-0.757951608426184
sg35
F-0.817877855617842
sg36
F-0.49438104211011263
sg37
F-0.8540554044392729
sg38
F-0.8196930179258307
sg39
F-0.3643135639054456
sg40
F-0.894157012825071
sg41
F-0.7929056663789342
sg42
F-0.8675495626360581
sg43
F-0.5138981120817987
sg44
F-0.6325494215504619
sg45
F-0.3998231199469513
sg46
F-0.8424151635206574
sg47
F-0.8017618681564118
sg48
F-0.4897326307647884
sg49
F-0.4710043323305306
ssS'Ike_Anigbogu'
p136
(dp137
g3
F-0.6887444523782799
sg4
F-0.08844656727570371
sg5
F-0.7831140219042309
sg6
F-0.9999999999999999
sg7
F-0.3789152511118255
sg8
F-0.5616409938193754
sg9
F-0.3202411377246918
sg10
F-0.6596048545176589
sg11
F-0.9963064459368494
sg12
F-0.6842069965719454
sg13
F-0.645028804929892
sg14
F-0.3043336684745297
sg15
F-0.3280147658768981
sg16
F-0.6993678371645506
sg17
F-0.395362130204863
sg18
F0.1377226427045597
sg19
F-0.9999999999999999
sg20
F-0.09304319530729453
sg21
F-0.8049804374943257
sg22
F-0.6746900703628803
sg23
F-0.33917997362568814
sg24
F-0.9869358992786365
sg25
F-0.6469955554974874
sg26
F-0.3322370185834381
sg27
F-0.8279325618828671
sg28
F0.2221938347535144
sg29
F-0.9879789391105871
sg30
F-0.9255839048093755
sg31
F-0.49248069782081527
sg32
F-0.07135597237065985
sg33
F-0.7803858978112215
sg34
F-0.7831140219042309
sg35
F-0.8241528791170935
sg36
F-0.5128973314953735
sg37
F-0.9098331325881259
sg38
F-0.8313502059428072
sg39
F-0.6281411341014425
sg40
F-0.8535010850182024
sg41
F-0.8041266606720014
sg42
F-0.6768427841217833
sg43
F-0.4793980950416596
sg44
F-0.8989459474152186
sg45
F-0.47570454097850906
sg46
F-0.8175033133129797
sg47
F-0.8688286144155204
sg48
F-0.5015073605695789
sg49
F-0.48738093966243057
ssS'Jameel_Warney'
p138
(dp139
g3
F-0.6365380472360438
sg4
F-0.15826964580260813
sg5
F-0.7692555353305596
sg6
F-0.9095703968176915
sg7
F-0.37005134804604145
sg8
F-0.48149123490832885
sg9
F-0.28636274258519073
sg10
F-0.6554224731670866
sg11
F-0.978400946672229
sg12
F-0.8498272411443024
sg13
F-0.5887615902136691
sg14
F-0.3146467533995879
sg15
F-0.27913477952671534
sg16
F-0.7317158110043293
sg17
F-0.4502430848289401
sg18
F0.14012612705689992
sg19
F-0.9968469973040859
sg20
F-0.18030476768179682
sg21
F-0.7940708334946367
sg22
F-0.6637104075737664
sg23
F-0.3802878561828734
sg24
F-0.9344595505972095
sg25
F-0.7579770961815004
sg26
F-0.30416163013806957
sg27
F-0.7731502005956398
sg28
F0.38057428672321214
sg29
F-0.9268739216723009
sg30
F-0.9200488210283824
sg31
F-0.39472212352858704
sg32
F-0.021777710661976223
sg33
F-0.7802098444307787
sg34
F-0.7724085380264738
sg35
F-0.7803490734142932
sg36
F-0.41688712065033673
sg37
F-0.81704748735164
sg38
F-0.7757305516955612
sg39
F-0.5713641217566205
sg40
F-0.8686134656992757
sg41
F-0.7569777684126981
sg42
F-0.8492086815102857
sg43
F-0.47841426629695155
sg44
F-0.7835027434968737
sg45
F-0.4568152129691805
sg46
F-0.8597539659291435
sg47
F-0.7408787607920154
sg48
F-0.48796201289455
sg49
F-0.47426864279151504
ssS'Andre_Ingram'
p140
(dp141
g3
F-0.5923066372827771
sg4
F-0.2792322543188349
sg5
F-0.8188471833027552
sg6
F-0.5961706356402754
sg7
F-0.703607876517249
sg8
F-0.5764896233445513
sg9
F-0.34898417611825605
sg10
F-0.8504354450026168
sg11
F-0.7785159262532384
sg12
F-0.9751159672415777
sg13
F-0.574783577459305
sg14
F-0.41433430564659895
sg15
F-0.31447296670753827
sg16
F-0.8397266455087021
sg17
F-0.5462556033739049
sg18
F0.022150811422613787
sg19
F-0.9488434616053748
sg20
F-0.40536527234327235
sg21
F-0.8400215642188309
sg22
F-0.8791251522493311
sg23
F-0.5071243092530917
sg24
F-0.2792818607487084
sg25
F-0.8488150782239613
sg26
F-0.33971520846966563
sg27
F-0.8444509474374897
sg28
F0.19968261690225575
sg29
F-0.6980925090090295
sg30
F-0.5781732215008576
sg31
F-0.18286717050750873
sg32
F-0.09910212716038659
sg33
F-0.7696316715495066
sg34
F-0.8700037216973803
sg35
F-0.9340267899557105
sg36
F-0.5263334272384879
sg37
F-0.8070073940863598
sg38
F-0.8477669684693547
sg39
F-0.46949851418894356
sg40
F-0.9525714125583906
sg41
F-0.9272223397175583
sg42
F-0.9754141129531915
sg43
F-0.6794377069974992
sg44
F-0.6368556331393697
sg45
F-0.45795363325073757
sg46
F-0.9181892971361103
sg47
F-0.7016272528750298
sg48
F-0.5081115234106461
sg49
F-0.5020694247400803
ssS'Edmond_Sumner'
p142
(dp143
g3
F-0.8629695568197745
sg4
F-0.20148065924307382
sg5
F-0.7728496320713295
sg6
F-0.49492314163379714
sg7
F-0.6599027186689751
sg8
F-0.8494498729410056
sg9
F-0.32039702185652674
sg10
F-0.7308335572748759
sg11
F-0.8079007903386257
sg12
F-0.9516252279963772
sg13
F-0.8437671164528341
sg14
F-0.2668701207681779
sg15
F-0.26842363519931606
sg16
F-0.8060747468038543
sg17
F-0.4813304681790569
sg18
F0.03776122752394345
sg19
F-0.9481470818697257
sg20
F-0.29665585022221685
sg21
F-0.7914056053041099
sg22
F-0.778250869608649
sg23
F-0.4193679465421137
sg24
F-0.39215491158792964
sg25
F-0.7399628327799319
sg26
F-0.33553107651722736
sg27
F-0.7543580444832405
sg28
F0.43151553209160687
sg29
F-0.8594339299059056
sg30
F-0.7280666494714466
sg31
F-0.2840944895063123
sg32
F-0.04785418746439986
sg33
F-0.7999332219243377
sg34
F-0.8247025502016038
sg35
F-0.9661409077879911
sg36
F-0.8291104646077657
sg37
F-0.4204294699239708
sg38
F-0.7603004790806768
sg39
F-0.28125916765500264
sg40
F-0.917857202876195
sg41
F-0.9632149858384033
sg42
F-0.9506247797996251
sg43
F-0.5802329859380204
sg44
F-0.7027593741841958
sg45
F-0.3881337762766463
sg46
F-0.8315611532153416
sg47
F-0.17812922463994663
sg48
F-0.5022339016030439
sg49
F-0.49026756114699466
ssS'Milos_Teodosic'
p144
(dp145
g3
F-0.8471212702389959
sg4
F-0.01856507579306117
sg5
F-0.7632780375308024
sg6
F-0.33534345594471426
sg7
F-0.5132083675407436
sg8
F-0.825578033080329
sg9
F-0.30432738096736456
sg10
F-0.8359136437669945
sg11
F-0.7926223688979178
sg12
F-0.9789390638384518
sg13
F-0.8225489770113479
sg14
F-0.27718234811899467
sg15
F-0.24777094197765265
sg16
F-0.8121259681641813
sg17
F-0.32924753037203636
sg18
F0.07045919023942947
sg19
F-0.928023308810605
sg20
F-0.13344787814658626
sg21
F-0.7938840381451061
sg22
F-0.8599510264200898
sg23
F-0.2930316281638881
sg24
F-0.20546622080075494
sg25
F-0.548192978469048
sg26
F-0.324751246929141
sg27
F-0.6638947932152109
sg28
F0.6323469046002068
sg29
F-0.45405174527339437
sg30
F-0.37716205393798574
sg31
F0.3938914246766041
sg32
F-0.015173947851403066
sg33
F-0.7633342538177861
sg34
F-0.8352547287201977
sg35
F-0.9639622181106217
sg36
F-0.8110834883496174
sg37
F-0.3649259006397511
sg38
F-0.6800133129627968
sg39
F-0.27041451783753034
sg40
F-0.9449994203553278
sg41
F-0.9588453116979815
sg42
F-0.9799131435826888
sg43
F-0.6600572566021646
sg44
F-0.39307987381917514
sg45
F-0.45267962550008223
sg46
F-0.747504224575527
sg47
F-0.13014082045036934
sg48
F-0.49681989878066257
sg49
F-0.4848604921613393
ssS'Donovan_Mitchell'
p146
(dp147
g3
F-0.8355791856245848
sg4
F-0.16924031157715014
sg5
F-0.7256602466840375
sg6
F-0.43101906215622987
sg7
F-0.5605002432449291
sg8
F-0.7964196166628683
sg9
F-0.3251821046706574
sg10
F-0.791456561832963
sg11
F-0.7479505533700905
sg12
F-0.9369888012924994
sg13
F-0.8098116988740314
sg14
F-0.16909948207494985
sg15
F-0.2641235156128136
sg16
F-0.8287719599199611
sg17
F-0.4408251884577187
sg18
F0.08878278614420894
sg19
F-0.9275391512303971
sg20
F-0.26290825740851187
sg21
F-0.7620578906932629
sg22
F-0.8174570805105217
sg23
F-0.4025487217443767
sg24
F-0.29356423257646086
sg25
F-0.7628907594130336
sg26
F-0.34558954370393036
sg27
F-0.7055848292491115
sg28
F0.5150412048804773
sg29
F-0.4461407664539626
sg30
F-0.2843208541367211
sg31
F0.3525720801443195
sg32
F-0.024853416403986694
sg33
F-0.8093016037097766
sg34
F-0.7981210954536405
sg35
F-0.9358370610672725
sg36
F-0.7714162466918575
sg37
F-0.706582980649699
sg38
F-0.7096921443310814
sg39
F-0.15614307518576742
sg40
F-0.9463081539807537
sg41
F-0.930268540282156
sg42
F-0.9368996278091551
sg43
F-0.5144412336232329
sg44
F-0.3475444650519799
sg45
F-0.26239178699332366
sg46
F-0.8365924028706964
sg47
F-0.6029203460894592
sg48
F-0.5086826811297077
sg49
F-0.4983204588577306
ssS'Markelle_Fultz'
p148
(dp149
g3
F-0.8124919425947753
sg4
F-0.11500375267944929
sg5
F-0.6820799555990859
sg6
F-0.3583632808512317
sg7
F-0.5340369199225872
sg8
F-0.7770979825076167
sg9
F-0.29134825440537354
sg10
F-0.6737427290691498
sg11
F-0.8133260705649323
sg12
F-0.9236232288459594
sg13
F-0.7837840159967946
sg14
F-0.09122980392241704
sg15
F-0.24155009422447515
sg16
F-0.8504253117118246
sg17
F-0.38877229831143756
sg18
F0.09929373505897184
sg19
F-0.9393505706352782
sg20
F-0.16784664883326067
sg21
F-0.7195024167695425
sg22
F-0.7213924269931145
sg23
F-0.33931499230189893
sg24
F-0.47215245061450456
sg25
F-0.7441039908452848
sg26
F-0.32653555854777166
sg27
F-0.7429139911263631
sg28
F0.5525931102085483
sg29
F-0.056520468937715174
sg30
F0.023853615226618816
sg31
F0.6596051810075161
sg32
F0.0010636742709728125
sg33
F-0.7237028384543112
sg34
F-0.7427293849638077
sg35
F-0.9437858227212534
sg36
F-0.7562777653160287
sg37
F-0.6391334012911822
sg38
F-0.7528639810888984
sg39
F0.11118798420916642
sg40
F-0.9236015341143053
sg41
F-0.9356889772826401
sg42
F-0.9254678008488075
sg43
F-0.43176349449455675
sg44
F0.030865633175840165
sg45
F-0.24508956505948903
sg46
F-0.8086600596889892
sg47
F-0.5259189970885999
sg48
F-0.4977217173764427
sg49
F-0.48673271472133295
ssS'Jonathan_Isaac'
p150
(dp151
g3
F-0.6795506034248157
sg4
F-0.07231693219377279
sg5
F-0.7010798571936919
sg6
F-0.3715841873950506
sg7
F-0.4571602424639777
sg8
F-0.5965458900095233
sg9
F-0.2974557877092102
sg10
F-0.7386901597385493
sg11
F-0.7816730730421628
sg12
F-0.8902912916675985
sg13
F-0.62795418307948
sg14
F-0.16211212357895402
sg15
F-0.2695474567938432
sg16
F-0.8065769263704421
sg17
F-0.38080277025565035
sg18
F0.07546871814572653
sg19
F-0.9316343248195866
sg20
F-0.16185205543545186
sg21
F-0.7392187774747012
sg22
F-0.7437938135208011
sg23
F-0.3386093507487848
sg24
F-0.42391379230315385
sg25
F-0.7525493788803148
sg26
F-0.32795733714879816
sg27
F-0.7964601063885413
sg28
F0.3506534614194471
sg29
F-0.5350698349683092
sg30
F-0.50215008039099
sg31
F0.31374198794018243
sg32
F-0.03496582680070071
sg33
F-0.8026461836768457
sg34
F-0.7694455323741053
sg35
F-0.8735451566347772
sg36
F-0.5530957600595929
sg37
F-0.8482233758256441
sg38
F-0.7968581472783878
sg39
F-0.249135849179603
sg40
F-0.914788171093598
sg41
F-0.8595711230979799
sg42
F-0.8894286966214853
sg43
F-0.5047835499542779
sg44
F-0.366563629019958
sg45
F-0.2864566229964408
sg46
F-0.8309645458023077
sg47
F-0.7931277652630662
sg48
F-0.5009369283307727
sg49
F-0.4869079107262355
ssS'Josh_Magette'
p152
(dp153
g3
F-0.8373455273065497
sg4
F-0.11378223698296615
sg5
F-0.7442620367663076
sg6
F-0.34435420849573667
sg7
F-0.41977709142667013
sg8
F-0.7732666722460819
sg9
F-0.29893261483709654
sg10
F-0.7369647631818577
sg11
F-0.7576629586810842
sg12
F-0.9533738139752724
sg13
F-0.8131141738615267
sg14
F-0.17923671665652816
sg15
F-0.23584325908661566
sg16
F-0.81375324394242
sg17
F-0.39105082010735126
sg18
F0.11338652540292427
sg19
F-0.9224035888612542
sg20
F-0.21163380277527286
sg21
F-0.7646743708989725
sg22
F-0.7644522042572941
sg23
F-0.34332909509476167
sg24
F-0.2310346776734715
sg25
F-0.6648657556600803
sg26
F-0.31903693505217023
sg27
F-0.6612486566158317
sg28
F0.4752675680718245
sg29
F-0.6568013476763349
sg30
F-0.633665668683278
sg31
F0.33289415620859203
sg32
F0.01211411697968468
sg33
F-0.7039036045565539
sg34
F-0.821858447905053
sg35
F-0.9172468296292349
sg36
F-0.7545923569357847
sg37
F-0.5329424964451573
sg38
F-0.678234899239565
sg39
F-0.24609228671327765
sg40
F-0.921113592481444
sg41
F-0.9026235737247745
sg42
F-0.9555332012953962
sg43
F-0.5895271224479154
sg44
F-0.3795187579328173
sg45
F-0.3471900811289997
sg46
F-0.7904984564291448
sg47
F-0.3655349089039803
sg48
F-0.49809907898954386
sg49
F-0.4826526183449892
ssS'Dillon_Brooks'
p154
(dp155
g3
F-0.7700926256464702
sg4
F-0.1094312618171221
sg5
F-0.7620509682548474
sg6
F-0.37405339121351544
sg7
F-0.5400010412243283
sg8
F-0.7195175050107169
sg9
F-0.3135778259995928
sg10
F-0.8152660352820023
sg11
F-0.7700183504527374
sg12
F-0.9122720257003718
sg13
F-0.735366839159489
sg14
F-0.30816468187346013
sg15
F-0.25569928256708707
sg16
F-0.7982859175889563
sg17
F-0.38875914923958477
sg18
F0.1101814918121896
sg19
F-0.9261969263736848
sg20
F-0.2063480371758082
sg21
F-0.7893982928547564
sg22
F-0.8324034730147497
sg23
F-0.349871618302715
sg24
F-0.22829750113579655
sg25
F-0.7621310366972535
sg26
F-0.32748624312413654
sg27
F-0.7327839741363235
sg28
F0.5159873531459225
sg29
F-0.7160842004721788
sg30
F-0.5881328408604329
sg31
F0.19737834606924176
sg32
F-0.00868632306821037
sg33
F-0.7921945749783139
sg34
F-0.8358540418811629
sg35
F-0.9198512246188428
sg36
F-0.6899438502653129
sg37
F-0.7531328275219964
sg38
F-0.743066013581941
sg39
F-0.2347649988154694
sg40
F-0.9368033805422911
sg41
F-0.910530324045485
sg42
F-0.9075828100578006
sg43
F-0.6345738697290371
sg44
F-0.4603714389245359
sg45
F-0.40459222018177426
sg46
F-0.8714411194112327
sg47
F-0.6631349872943891
sg48
F-0.4978300798730616
sg49
F-0.4868853620893526
ssS'Bam_Adebayo'
p156
(dp157
g3
F-0.6432195806312626
sg4
F-0.013632862049758549
sg5
F-0.6961842481483059
sg6
F-0.7731845542255414
sg7
F-0.2724948528177228
sg8
F-0.5072425419080615
sg9
F-0.2689790281375114
sg10
F-0.6735842987203597
sg11
F-0.9666323485458105
sg12
F-0.7637337121636397
sg13
F-0.5911527368345145
sg14
F-0.18961139526768506
sg15
F-0.2630120452200343
sg16
F-0.7539072358037192
sg17
F-0.33919664483632134
sg18
F0.1971497949575487
sg19
F-0.9881801360909335
sg20
F-0.026045239470497854
sg21
F-0.7451583291247907
sg22
F-0.6667650668849509
sg23
F-0.2958811762206809
sg24
F-0.9038532157761684
sg25
F-0.6937712059685448
sg26
F-0.3037424154771273
sg27
F-0.7352250465363835
sg28
F0.31446163372549013
sg29
F-0.08122290863941146
sg30
F-0.020262802953921785
sg31
F0.5873544189686983
sg32
F0.014677834749436095
sg33
F-0.6648682916393465
sg34
F-0.7080041120573727
sg35
F-0.813400010038391
sg36
F-0.4566195906696535
sg37
F-0.8232092986475832
sg38
F-0.7413527213449737
sg39
F-0.06888296403041683
sg40
F-0.8801157848103514
sg41
F-0.7886763209110444
sg42
F-0.7581825935698259
sg43
F-0.39877800675556363
sg44
F-0.13637399931551444
sg45
F-0.36541035530137395
sg46
F-0.7976911279307921
sg47
F-0.7748151053215819
sg48
F-0.49330449794886083
sg49
F-0.4727068254484204
ssS'Thomas_Bryant'
p158
(dp159
g3
F-0.7431780340194263
sg4
F-0.011428927806625785
sg5
F-0.7532998635138766
sg6
F-0.7503271868673231
sg7
F-0.3182898681725577
sg8
F-0.6093841519629715
sg9
F-0.3065497642831741
sg10
F-0.7561946853125691
sg11
F-0.9197509525937339
sg12
F-0.8328654294957714
sg13
F-0.711567395629004
sg14
F-0.3375139625068562
sg15
F-0.2736379778377196
sg16
F-0.6965044546120265
sg17
F-0.35132911003248296
sg18
F0.1466511652791915
sg19
F-0.9737783523292936
sg20
F-0.0676940739026339
sg21
F-0.7906733872393961
sg22
F-0.7400114169706065
sg23
F-0.32022995774688545
sg24
F-0.7481972706317098
sg25
F-0.6892292140767962
sg26
F-0.30798844090854105
sg27
F-0.7332879156783234
sg28
F-0.022492771421803517
sg29
F-0.9394961546068064
sg30
F-0.8554949541403208
sg31
F-0.33169823159223044
sg32
F-0.01378550203566864
sg33
F-0.7658609715192781
sg34
F-0.779521511184583
sg35
F-0.8251240834891436
sg36
F-0.56830211750857
sg37
F-0.8709700573267382
sg38
F-0.7409843231949281
sg39
F-0.42189683281699336
sg40
F-0.893879561000583
sg41
F-0.7975746469900074
sg42
F-0.8322923440416629
sg43
F-0.5615505622376912
sg44
F-0.7500222279541647
sg45
F-0.4813015148314252
sg46
F-0.8409402933440902
sg47
F-0.8273237301463701
sg48
F-0.49125686279063174
sg49
F-0.4750392072619686
ssS'Justin_Jackson'
p160
(dp161
g3
F-0.7632766526467964
sg4
F-0.08211727884658376
sg5
F-0.7170297529312111
sg6
F-0.37493049693003766
sg7
F-0.5627629342364807
sg8
F-0.7280391204479929
sg9
F-0.30013736954076553
sg10
F-0.7764823540349772
sg11
F-0.77486537256968
sg12
F-0.9097794242883759
sg13
F-0.7383902462383599
sg14
F-0.2265587522744379
sg15
F-0.2447138185570932
sg16
F-0.8606996299552099
sg17
F-0.3622767210682424
sg18
F0.09266285390712956
sg19
F-0.9244379296024534
sg20
F-0.1592674674899099
sg21
F-0.7530520864934735
sg22
F-0.7973933681491625
sg23
F-0.32532720110712915
sg24
F-0.30679875215427355
sg25
F-0.7518788045108153
sg26
F-0.32003974788102113
sg27
F-0.8105891514276233
sg28
F0.3911141734469211
sg29
F-0.5182071303166369
sg30
F-0.3749787953154396
sg31
F0.27635422699027246
sg32
F-0.004861045259329345
sg33
F-0.7639570384593045
sg34
F-0.7925918233287578
sg35
F-0.9322087048919176
sg36
F-0.6954853575387138
sg37
F-0.7367279738387453
sg38
F-0.8150175346360397
sg39
F-0.19171896757150197
sg40
F-0.9336478069986737
sg41
F-0.9235092606301365
sg42
F-0.913321219418029
sg43
F-0.5547224230859863
sg44
F-0.4001548920797229
sg45
F-0.32958779565566604
sg46
F-0.8453887485836795
sg47
F-0.6516042471283198
sg48
F-0.493034244761396
sg49
F-0.48217105036009045
ssS'Ivan_Rabb'
p162
(dp163
g3
F-0.6925243648970879
sg4
F-0.012269188679357036
sg5
F-0.734755692888014
sg6
F-0.6102184973839385
sg7
F-0.5264390250907071
sg8
F-0.5499671842579601
sg9
F-0.2786865157568493
sg10
F-0.7612850181860519
sg11
F-0.8980741098008169
sg12
F-0.8782541631527946
sg13
F-0.6479787296949109
sg14
F-0.33202290130463585
sg15
F-0.2561460500132646
sg16
F-0.7944241816629627
sg17
F-0.31512961989319893
sg18
F0.0741910074477159
sg19
F-0.9612049022215006
sg20
F-0.040541279790325874
sg21
F-0.7748735801748876
sg22
F-0.7729582341745099
sg23
F-0.2733921784571764
sg24
F-0.6406281639424208
sg25
F-0.7597031223261084
sg26
F-0.2978367995132947
sg27
F-0.8256003818867318
sg28
F0.25933830286439674
sg29
F-0.8909680438304506
sg30
F-0.8571351042770732
sg31
F-0.22238560976989033
sg32
F-0.023004011920785966
sg33
F-0.7744171561669392
sg34
F-0.7735507906665132
sg35
F-0.8084751660658239
sg36
F-0.5009995309629119
sg37
F-0.8621077297253835
sg38
F-0.8331558510337078
sg39
F-0.4520870872871004
sg40
F-0.9062941083094693
sg41
F-0.7849965258718508
sg42
F-0.8706932233655581
sg43
F-0.5488954060747643
sg44
F-0.7337228657088299
sg45
F-0.44696951587558126
sg46
F-0.8755038638286285
sg47
F-0.8108418556368487
sg48
F-0.47917976164912657
sg49
F-0.46709405413637006
ssS'Josh_Gray'
p164
(dp165
g3
F-0.815850903825755
sg4
F-0.17788501436926182
sg5
F-0.7770442681189657
sg6
F-0.3105692341498323
sg7
F-0.5455011130042067
sg8
F-0.796479828484641
sg9
F-0.30937890487278513
sg10
F-0.7628993358863437
sg11
F-0.8978899706672892
sg12
F-0.9819856131597
sg13
F-0.7856035872444801
sg14
F-0.2520797444305122
sg15
F-0.28127530820396174
sg16
F-0.8366440110037392
sg17
F-0.41899848821381513
sg18
F0.07693808012645018
sg19
F-0.9661201083176538
sg20
F-0.19381381263601427
sg21
F-0.8049435238720607
sg22
F-0.7517683879133472
sg23
F-0.3735733125144204
sg24
F-0.6209184702040058
sg25
F-0.5753211517703333
sg26
F-0.34026864763196807
sg27
F-0.5980380350536615
sg28
F0.33472014513074055
sg29
F-0.9124261356833012
sg30
F-0.7952130085558873
sg31
F-0.2995247718962999
sg32
F-0.04586073384355438
sg33
F-0.796434574109613
sg34
F-0.8109241598013117
sg35
F-0.961667288843004
sg36
F-0.7775181926687592
sg37
F-0.31314346833601175
sg38
F-0.6118548758163145
sg39
F-0.3566860265929567
sg40
F-0.8896911703678974
sg41
F-0.9567849433762028
sg42
F-0.983017739400869
sg43
F-0.5498360645614511
sg44
F-0.7481920522550308
sg45
F-0.4477260352287403
sg46
F-0.7490872818246607
sg47
F-0.037361195946575304
sg48
F-0.5050368272808475
sg49
F-0.49498782374110706
ssS'Jayson_Tatum'
p166
(dp167
g3
F-0.7650352365653532
sg4
F-0.11720768822712496
sg5
F-0.7167478321395355
sg6
F-0.3835702829752167
sg7
F-0.5425050272952601
sg8
F-0.7125887129922206
sg9
F-0.3025998979836507
sg10
F-0.7202586051815881
sg11
F-0.8229542359893255
sg12
F-0.9116303007686093
sg13
F-0.7331060929752079
sg14
F-0.189445815472845
sg15
F-0.25144885971556186
sg16
F-0.8411870593277744
sg17
F-0.3979483783501619
sg18
F0.12450502259527352
sg19
F-0.9431810221889516
sg20
F-0.18016671429944542
sg21
F-0.7507823925532798
sg22
F-0.7428344384531503
sg23
F-0.3505812219138687
sg24
F-0.47753405460442566
sg25
F-0.7346239579524125
sg26
F-0.3291997607651073
sg27
F-0.7637077209615263
sg28
F0.44257137677838054
sg29
F-0.1269407178155906
sg30
F-0.054031631151052716
sg31
F0.7243274487843978
sg32
F-5.8736548561908776e-05
sg33
F-0.7689794717121693
sg34
F-0.7735668099505837
sg35
F-0.9129362868096017
sg36
F-0.677971523374955
sg37
F-0.7367314393551984
sg38
F-0.7686002275925741
sg39
F0.15664906726080308
sg40
F-0.9178604246155448
sg41
F-0.9033960005618131
sg42
F-0.9145553998165277
sg43
F-0.4893841934708508
sg44
F0.08900443656096035
sg45
F-0.31233842946017626
sg46
F-0.8242589070435467
sg47
F-0.6491644544525316
sg48
F-0.4995927552141427
sg49
F-0.4879599705237258
ssS'Bogdan_Bogdanovic'
p168
(dp169
g3
F-0.8295551102409874
sg4
F-0.1739188327994396
sg5
F-0.756665468945765
sg6
F-0.3721507133632343
sg7
F-0.5396369967744681
sg8
F-0.8014228460264171
sg9
F-0.3298970459290856
sg10
F-0.7919533050519921
sg11
F-0.7574446328876674
sg12
F-0.959809364029494
sg13
F-0.808759333488058
sg14
F-0.2728497620584143
sg15
F-0.2697076122444765
sg16
F-0.794430176870884
sg17
F-0.4051689738054098
sg18
F0.07019906098784665
sg19
F-0.9207245364559676
sg20
F-0.23106863844923267
sg21
F-0.7805300921976093
sg22
F-0.8224978936637656
sg23
F-0.3604278006932222
sg24
F-0.22598749848051186
sg25
F-0.7032817946965482
sg26
F-0.33264523557726694
sg27
F-0.7602072080993432
sg28
F0.5665350961461075
sg29
F-0.9297125035015842
sg30
F-0.8796522537058422
sg31
F0.06952841465275973
sg32
F-0.037220959652976476
sg33
F-0.7964415830796344
sg34
F-0.8359409324897975
sg35
F-0.9503405607510362
sg36
F-0.7798956709920237
sg37
F-0.6899503855287719
sg38
F-0.7612235461698995
sg39
F-0.4994437586182918
sg40
F-0.9361836907831804
sg41
F-0.9435518129919855
sg42
F-0.9600932675283005
sg43
F-0.6195325345345133
sg44
F-0.6882085345712816
sg45
F-0.37697716742218057
sg46
F-0.8259441782562054
sg47
F-0.5410550894176789
sg48
F-0.5018318161231845
sg49
F-0.4904464532120564
ssS'Guerschon_Yabusele'
p170
(dp171
g3
F-0.660332906360182
sg4
F-0.014657916321632687
sg5
F-0.731824369430181
sg6
F-0.4140979099715004
sg7
F-0.43147190155527504
sg8
F-0.5754209765239643
sg9
F-0.2865514984504306
sg10
F-0.7004447904520348
sg11
F-0.7950646959881271
sg12
F-0.8097262536468767
sg13
F-0.6228465375378006
sg14
F-0.27566013771884934
sg15
F-0.24798885958250352
sg16
F-0.7730118313240271
sg17
F-0.3261267038958767
sg18
F0.1258838121048633
sg19
F-0.9291263338514639
sg20
F-0.10975710510194031
sg21
F-0.7532131413412805
sg22
F-0.7190828832293219
sg23
F-0.28184592992316526
sg24
F-0.31497750394550333
sg25
F-0.726985715123189
sg26
F-0.3081536659682397
sg27
F-0.7818419669679098
sg28
F0.3365539366688084
sg29
F-0.6942643153160225
sg30
F-0.6676522561447167
sg31
F0.5711499052359954
sg32
F0.0037733065925542896
sg33
F-0.7600599012012015
sg34
F-0.8026980355787171
sg35
F-0.8629749259144819
sg36
F-0.5233078322746642
sg37
F-0.8597958624428781
sg38
F-0.7795711297974857
sg39
F-0.21961232611887968
sg40
F-0.8987143463572745
sg41
F-0.845570336012759
sg42
F-0.8155728739585054
sg43
F-0.6015911816765054
sg44
F-0.3169245610180475
sg45
F-0.3966558776646325
sg46
F-0.8374334669748829
sg47
F-0.7999407689845555
sg48
F-0.49013014806264726
sg49
F-0.4750115908776476
ssS'Charles_Cooke'
p172
(dp173
g3
F-0.5720544767667766
sg4
F-0.3882576137352738
sg5
F-0.8782334022792877
sg6
F-0.5955052368860534
sg7
F-0.7142881417796377
sg8
F-0.5786120574958274
sg9
F-0.35896243323518434
sg10
F-0.7121436700224537
sg11
F-0.8410784096136841
sg12
F-0.9747367996110976
sg13
F-0.5465847581445766
sg14
F-0.5140668433014599
sg15
F-0.3344538590890066
sg16
F-0.8583746716041237
sg17
F-0.5924681214662847
sg18
F0.052467431684227184
sg19
F-0.9696750992533358
sg20
F-0.45850799771269746
sg21
F-0.866068585718408
sg22
F-0.7556031028457733
sg23
F-0.5059892888969388
sg24
F-0.2727865454226598
sg25
F-0.7604790273364028
sg26
F-0.34394577211217975
sg27
F-0.8597605335437689
sg28
F0.11810830963736288
sg29
F-0.9387298717336591
sg30
F-0.6766530994947622
sg31
F-0.7377210607793298
sg32
F-0.10746374799028961
sg33
F-0.7826697558574857
sg34
F-0.9085583030259519
sg35
F-0.9526219995449986
sg36
F-0.5246764763117753
sg37
F-0.8598788797021762
sg38
F-0.8589383738044305
sg39
F-0.49240395287156036
sg40
F-0.8597928265851664
sg41
F-0.9492912010628142
sg42
F-0.9732570199091529
sg43
F-0.7702884085707181
sg44
F-0.9069547123801465
sg45
F-0.6113668181844023
sg46
F-0.9000474168391945
sg47
F-0.7815262602518516
sg48
F-0.5071624306423073
sg49
F-0.5021660222287544
ssS'Rodney_Purvis'
p174
(dp175
g3
F-0.5832136123625083
sg4
F-0.22261284178824778
sg5
F-0.8468691533864725
sg6
F-0.5658848038258887
sg7
F-0.6274921380998442
sg8
F-0.582967267697608
sg9
F-0.3473461245496562
sg10
F-0.8571087546813728
sg11
F-0.7641613502478453
sg12
F-0.9758383348317018
sg13
F-0.5633983148064261
sg14
F-0.4833041683509692
sg15
F-0.30881580444312035
sg16
F-0.8734901298791131
sg17
F-0.5398813043636476
sg18
F0.06765909139108288
sg19
F-0.9411984356635829
sg20
F-0.4217387712828073
sg21
F-0.8571431740983053
sg22
F-0.8734794305773218
sg23
F-0.5033604255252032
sg24
F-0.11163567748584416
sg25
F-0.836359152802137
sg26
F-0.3348215065500813
sg27
F-0.8236984623068321
sg28
F0.117091090782016
sg29
F-0.7260368774352437
sg30
F-0.5185614945089393
sg31
F-0.31697043680656234
sg32
F-0.07734995478382094
sg33
F-0.7772241107820601
sg34
F-0.9056707177228895
sg35
F-0.9494642620319407
sg36
F-0.5326778743944491
sg37
F-0.7980922597657115
sg38
F-0.8259307993740906
sg39
F-0.4767553646008883
sg40
F-0.9471269038700089
sg41
F-0.9453159722136928
sg42
F-0.9746441029208097
sg43
F-0.76687758266735
sg44
F-0.7227300237024733
sg45
F-0.531038932915195
sg46
F-0.9210591020905952
sg47
F-0.6853119288056291
sg48
F-0.5068108564276352
sg49
F-0.4980965644704355
ssS'Terrance_Ferguson'
p176
(dp177
g3
F-0.8360276893577221
sg4
F-0.12723494420651288
sg5
F-0.7113210526075344
sg6
F-0.30851696898929537
sg7
F-0.5265833014693918
sg8
F-0.8038256398288017
sg9
F-0.30494176953020813
sg10
F-0.7334029416710242
sg11
F-0.7347520522637077
sg12
F-0.9514462853474608
sg13
F-0.8133106586299261
sg14
F-0.17309136541486322
sg15
F-0.24806591924625204
sg16
F-0.7962914020047837
sg17
F-0.36579103089091186
sg18
F0.061631566630438644
sg19
F-0.9072043314472165
sg20
F-0.18229250090511218
sg21
F-0.7371196183942469
sg22
F-0.7707860517563816
sg23
F-0.32045132407946614
sg24
F-0.23526700403618492
sg25
F-0.7337427425058218
sg26
F-0.3216282523845489
sg27
F-0.7179113299529435
sg28
F0.5505595665749452
sg29
F-0.7513960019713166
sg30
F-0.6881229406934147
sg31
F0.2614243254759333
sg32
F-0.018551599060979525
sg33
F-0.7981031172572554
sg34
F-0.804116721160318
sg35
F-0.9484607112804182
sg36
F-0.7844884006381403
sg37
F-0.6902861802353755
sg38
F-0.7232059653994065
sg39
F-0.374073039629149
sg40
F-0.9285322436521777
sg41
F-0.9408132786124728
sg42
F-0.9517363734110372
sg43
F-0.5641394272033513
sg44
F-0.5382180242125455
sg45
F-0.29889147946705896
sg46
F-0.8194563124737422
sg47
F-0.582050124496871
sg48
F-0.49530592017998004
sg49
F-0.48345143491871645
ssS'Walt_Lemon,_Jr.'
p178
(dp179
g3
F-0.7168906359269454
sg4
F-0.1940042259528277
sg5
F-0.7624177959316484
sg6
F-0.47875054530373967
sg7
F-0.5103296988967814
sg8
F-0.6870295982056023
sg9
F-0.32318249638153396
sg10
F-0.7284109597108139
sg11
F-0.7789321245200045
sg12
F-0.9149877648879193
sg13
F-0.6891508036689843
sg14
F-0.11057291060379444
sg15
F-0.2938610650399707
sg16
F-0.8385081931744814
sg17
F-0.47612904818773605
sg18
F0.10623758993257142
sg19
F-0.9452641831360924
sg20
F-0.29421050913716046
sg21
F-0.7831311782902873
sg22
F-0.7389161993048841
sg23
F-0.43107261766283134
sg24
F-0.3850743687028086
sg25
F-0.7043155347889234
sg26
F-0.35711892388414507
sg27
F-0.6764601566258583
sg28
F0.23345472224037037
sg29
F-0.8585317201550442
sg30
F-0.8158653721184399
sg31
F0.0150978064300707
sg32
F-0.048400517651740166
sg33
F-0.7644985803274115
sg34
F-0.8171536127955562
sg35
F-0.9318950653005301
sg36
F-0.6487857012274754
sg37
F-0.501662456303207
sg38
F-0.6804800067581004
sg39
F-0.4154873940600226
sg40
F-0.9136028007381993
sg41
F-0.9228222263384569
sg42
F-0.9082624263958263
sg43
F-0.4716555005698364
sg44
F-0.6573378435592492
sg45
F-0.25058762508984067
sg46
F-0.8081237548357699
sg47
F-0.2750473794070124
sg48
F-0.5325602904124298
sg49
F-0.5194292543882508
ssS'Lonzo_Ball'
p180
(dp181
g3
F-0.8291707158955314
sg4
F-0.11534868462800726
sg5
F-0.7118659667518683
sg6
F-0.3127913613655089
sg7
F-0.6569724972473387
sg8
F-0.7957333395859831
sg9
F-0.28674407595608975
sg10
F-0.7083265663604051
sg11
F-0.8085601389047579
sg12
F-0.9578585155354273
sg13
F-0.7970700257645464
sg14
F-0.11739949197789348
sg15
F-0.22804334875006282
sg16
F-0.8456565128460958
sg17
F-0.3804530467945937
sg18
F0.07023709225944354
sg19
F-0.9328137499696478
sg20
F-0.17102983775523287
sg21
F-0.7423043487667437
sg22
F-0.7538249192686582
sg23
F-0.32827793006256106
sg24
F-0.43183650041900334
sg25
F-0.6429770591907247
sg26
F-0.33354545244522665
sg27
F-0.7183343565427991
sg28
F0.5629524011267502
sg29
F0.18733549047664522
sg30
F0.3287518325128512
sg31
F0.7746244971300432
sg32
F0.0043414648643992386
sg33
F-0.762405395046882
sg34
F-0.7790522167822204
sg35
F-0.9504332240251829
sg36
F-0.7796039399207145
sg37
F-0.338242792792302
sg38
F-0.7274334020309913
sg39
F0.3106239131987218
sg40
F-0.9242913669855478
sg41
F-0.9430233195854402
sg42
F-0.9590283478349474
sg43
F-0.4935603466167746
sg44
F0.21452519584411794
sg45
F-0.3021204855215325
sg46
F-0.7507098039206984
sg47
F-0.1377377075956751
sg48
F-0.4978882647939828
sg49
F-0.49095438331977476
ssS'Mangok_Mathiang'
p182
(dp183
g3
F-0.710026109019645
sg4
F-0.0369945154007817
sg5
F-0.6573688076995567
sg6
F-0.5951232642189128
sg7
F-0.5522623712046275
sg8
F-0.5011675604401453
sg9
F-0.29041536263908374
sg10
F-0.820866855047814
sg11
F-0.9499027192140749
sg12
F-0.9033481875946409
sg13
F-0.6755115719463903
sg14
F-0.1747090423140963
sg15
F-0.27505277171996556
sg16
F-0.6816065244144324
sg17
F-0.3629528087488522
sg18
F0.012780952855454813
sg19
F-0.9830111267163062
sg20
F-0.06649687309534982
sg21
F-0.7393780036751865
sg22
F-0.801070881905883
sg23
F-0.3446915188986384
sg24
F-0.8688824373901066
sg25
F-0.6971672548529885
sg26
F-0.3255441656019732
sg27
F-0.8690915351944217
sg28
F-0.1962525404754104
sg29
F-0.8300403018482807
sg30
F-0.7387535759698132
sg31
F-0.4867551234022735
sg32
F-0.06308416566619604
sg33
F-0.7610710905304847
sg34
F-0.6743576809832507
sg35
F-0.7336043234999235
sg36
F-0.4436304325195686
sg37
F-0.8726432515658097
sg38
F-0.866375314668068
sg39
F-0.44561791243882104
sg40
F-0.9314124766963356
sg41
F-0.7001290672718729
sg42
F-0.9046379173487464
sg43
F-0.3635241203696559
sg44
F-0.812936805658788
sg45
F-0.31342683958373085
sg46
F-0.7896056231506834
sg47
F-0.826440890777519
sg48
F-0.4983374188445784
sg49
F-0.48764923031549834
ssS'Maxi_Kleber'
p184
(dp185
g3
F-0.7080462745238703
sg4
F0.02713435340971428
sg5
F-0.7433797686211793
sg6
F-0.5951364141693944
sg7
F-0.3397385230477929
sg8
F-0.5922538155315996
sg9
F-0.2814156814252052
sg10
F-0.8092741337486172
sg11
F-0.8306882033452752
sg12
F-0.8465814414070328
sg13
F-0.6590325501840318
sg14
F-0.32980723471301665
sg15
F-0.2318339606632773
sg16
F-0.7376276670917629
sg17
F-0.3125249058079181
sg18
F0.1828718977654298
sg19
F-0.9413280590981259
sg20
F-0.06714998683974228
sg21
F-0.781106848224401
sg22
F-0.8175037313546075
sg23
F-0.28249160613287083
sg24
F-0.4327290605988806
sg25
F-0.7435313362791253
sg26
F-0.2946295544721567
sg27
F-0.7365552604239912
sg28
F0.4153327668821319
sg29
F-0.5421562609377598
sg30
F-0.4643439770299063
sg31
F0.3956193161041254
sg32
F0.04006863936029709
sg33
F-0.6741201527680696
sg34
F-0.8020517095230536
sg35
F-0.847551002914964
sg36
F-0.5555972774388341
sg37
F-0.7772909076757752
sg38
F-0.7499915118998097
sg39
F-0.24388864831909685
sg40
F-0.9230089192683799
sg41
F-0.8273477423623136
sg42
F-0.8441030856808328
sg43
F-0.606814455792816
sg44
F-0.3819799755262403
sg45
F-0.43750265913809117
sg46
F-0.8674391018851421
sg47
F-0.7006909477546207
sg48
F-0.48401491562702825
sg49
F-0.466420278783858
ssS'Damion_Lee'
p186
(dp187
g3
F-0.5835328779382963
sg4
F-0.29477147635228035
sg5
F-0.8498186440604936
sg6
F-0.603020730837552
sg7
F-0.68382609079257
sg8
F-0.5859117635645817
sg9
F-0.351381317291619
sg10
F-0.7971145277180166
sg11
F-0.7761472397211999
sg12
F-0.9786584267376912
sg13
F-0.5657095090053478
sg14
F-0.4352763750446815
sg15
F-0.318553082126836
sg16
F-0.8629552565483279
sg17
F-0.5612226341213186
sg18
F0.04323716400220257
sg19
F-0.9488622500921072
sg20
F-0.43981514597569826
sg21
F-0.8527760723996265
sg22
F-0.8240620505282017
sg23
F-0.5070340005101304
sg24
F-0.1776381433706707
sg25
F-0.7992067631863327
sg26
F-0.3437290160507712
sg27
F-0.8333057786078641
sg28
F0.34278202223226933
sg29
F-0.9178605511482242
sg30
F-0.7136179167905683
sg31
F-0.5814204896873476
sg32
F-0.09567343561664525
sg33
F-0.7906666552987165
sg34
F-0.9009563939683863
sg35
F-0.9517078454846424
sg36
F-0.5352407234229386
sg37
F-0.7690384691255507
sg38
F-0.833484427408198
sg39
F-0.43571273787907605
sg40
F-0.9278744259625886
sg41
F-0.9475609303175929
sg42
F-0.9772404919785732
sg43
F-0.7419476597931665
sg44
F-0.8581700626760043
sg45
F-0.5180948995143664
sg46
F-0.8939492110538597
sg47
F-0.643755516020354
sg48
F-0.5086392145126443
sg49
F-0.5025727090677916
ssS'Tyrone_Wallace'
p188
(dp189
g3
F-0.8336505865494486
sg4
F-0.09323343635331188
sg5
F-0.7567752689309208
sg6
F-0.48736393048183385
sg7
F-0.5222184294845214
sg8
F-0.8211588755226602
sg9
F-0.324876638122807
sg10
F-0.6795968892151222
sg11
F-0.8193198342869485
sg12
F-0.9212940332652858
sg13
F-0.8110462276674546
sg14
F-0.1850111654923813
sg15
F-0.2844636769333566
sg16
F-0.7859264194040446
sg17
F-0.43393057929463186
sg18
F0.09550554589140867
sg19
F-0.954231770299999
sg20
F-0.22230145826933825
sg21
F-0.775126975196928
sg22
F-0.7029275366661066
sg23
F-0.37209790781746926
sg24
F-0.4084999990918683
sg25
F-0.637584498972088
sg26
F-0.34490507243087504
sg27
F-0.6434167440973555
sg28
F0.45957344077847745
sg29
F-0.8621442208687804
sg30
F-0.79637468764625
sg31
F-0.08106759331201348
sg32
F-0.04288219321135799
sg33
F-0.7715268948974433
sg34
F-0.802543498630922
sg35
F-0.9705811396289749
sg36
F-0.8042317261784235
sg37
F-0.561645203833082
sg38
F-0.6510187123224122
sg39
F-0.3823724512275862
sg40
F-0.8976927979818575
sg41
F-0.966446658731953
sg42
F-0.9155771642952084
sg43
F-0.5533171372306386
sg44
F-0.6868726527136205
sg45
F-0.372636971517587
sg46
F-0.7730259298580417
sg47
F-0.3817599450392475
sg48
F-0.5100046900099198
sg49
F-0.4979966921291934
ssS'Malcolm_Miller'
p190
(dp191
g3
F-0.7961445729772916
sg4
F-0.37708825676870017
sg5
F-0.8119998236905442
sg6
F-0.45424882731162075
sg7
F-0.6503507388479125
sg8
F-0.7671247488303701
sg9
F-0.3566320979338521
sg10
F-0.7967574729925092
sg11
F-0.6920431510824553
sg12
F-0.9409109512252259
sg13
F-0.7652023839558484
sg14
F-0.3224476971534102
sg15
F-0.29824201222247254
sg16
F-0.8443625242975783
sg17
F-0.5178589220459371
sg18
F0.05325617787528837
sg19
F-0.9151926165249327
sg20
F-0.40516813509594907
sg21
F-0.8162874173008974
sg22
F-0.835274775193457
sg23
F-0.46866705706401457
sg24
F0.013183860306010105
sg25
F-0.7713721952824207
sg26
F-0.35234023430116235
sg27
F-0.7636528892672336
sg28
F0.44116789261251255
sg29
F-0.95406167472465
sg30
F-0.8832632992268417
sg31
F-0.4603109363431119
sg32
F-0.07130916179343864
sg33
F-0.7819625217426251
sg34
F-0.8968072071656116
sg35
F-0.9456956761599986
sg36
F-0.7418402491372902
sg37
F-0.8660952182476147
sg38
F-0.7716952806264008
sg39
F-0.5146647395566599
sg40
F-0.9409886106965792
sg41
F-0.9385651855887652
sg42
F-0.9389803046116558
sg43
F-0.7043338773587097
sg44
F-0.8395336191631413
sg45
F-0.39637702844116496
sg46
F-0.8917238971531924
sg47
F-0.8087116235368095
sg48
F-0.5103227283056875
sg49
F-0.5034114621990915
ssS'Jalen_Jones'
p192
(dp193
g3
F-0.7810885645100928
sg4
F-0.21510958008064668
sg5
F-0.7838612225279938
sg6
F-0.4841062182422269
sg7
F-0.5185265553288362
sg8
F-0.6790047136000117
sg9
F-0.28991979463803563
sg10
F-0.6675807173733307
sg11
F-0.8656870659334416
sg12
F-0.863808382446533
sg13
F-0.7499061410526492
sg14
F-0.3713031500430034
sg15
F-0.24859732116758543
sg16
F-0.7818386914332399
sg17
F-0.4522318246048914
sg18
F0.16514318224892802
sg19
F-0.9562953073613816
sg20
F-0.2620307123201292
sg21
F-0.7920919496759129
sg22
F-0.7060170278549698
sg23
F-0.36861774590146434
sg24
F-0.5046714018230957
sg25
F-0.7902320309241432
sg26
F-0.3019475463316241
sg27
F-0.6616760060180389
sg28
F0.2924991011718481
sg29
F-0.9247588236764682
sg30
F-0.7909772312889665
sg31
F-0.49119439988300484
sg32
F0.01805800228629294
sg33
F-0.7608083180964139
sg34
F-0.8275659151666122
sg35
F-0.8618731028538537
sg36
F-0.6429616673639463
sg37
F-0.7986175781362161
sg38
F-0.6675697707077969
sg39
F-0.46856223969356464
sg40
F-0.8583693892430749
sg41
F-0.8452002499684889
sg42
F-0.861452171146105
sg43
F-0.6273443755981115
sg44
F-0.8333585957557614
sg45
F-0.4930314415315531
sg46
F-0.8881509616081947
sg47
F-0.7111173069996943
sg48
F-0.4836776095814242
sg49
F-0.4728298384890459
ssS'Ryan_Arcidiacono'
p194
(dp195
g3
F-0.8954884239830192
sg4
F-0.34237560904657655
sg5
F-0.7897426818875541
sg6
F-0.3509798300834554
sg7
F-0.6847219893456327
sg8
F-0.8879508464293583
sg9
F-0.33033042926246
sg10
F-0.83897659891575
sg11
F-0.8135317532754538
sg12
F-0.9768045974024718
sg13
F-0.8829389826899572
sg14
F-0.363375465496955
sg15
F-0.27917801073559423
sg16
F-0.8526883490983516
sg17
F-0.48672458788280487
sg18
F0.06572541729023533
sg19
F-0.9308209952904882
sg20
F-0.3424789508848281
sg21
F-0.8129134676760507
sg22
F-0.8684797489673635
sg23
F-0.45115625056968606
sg24
F-0.40425002098884766
sg25
F-0.7858802126848513
sg26
F-0.3351053725757599
sg27
F-0.6459478972218151
sg28
F-0.11678909242303821
sg29
F-0.9501679743333504
sg30
F-0.9433833650216891
sg31
F-0.5144950980286348
sg32
F-0.048200532444502536
sg33
F-0.7865195034077475
sg34
F-0.8589216865970659
sg35
F-0.97654253475097
sg36
F-0.872030958733989
sg37
F-0.5910907742381938
sg38
F-0.6537090403690324
sg39
F-0.5340056316861082
sg40
F-0.951791454831779
sg41
F-0.9743114589108058
sg42
F-0.9763064763432112
sg43
F-0.6434504068411772
sg44
F-0.8243198311516032
sg45
F-0.45698216011663084
sg46
F-0.8590786784821174
sg47
F-0.4456908385860722
sg48
F-0.5047638516460551
sg49
F-0.49480244258535994
ssS'Matt_Williams'
p196
(dp197
g3
F-0.5706978489780993
sg4
F-0.29584779556948615
sg5
F-0.8508113127668673
sg6
F-0.49454441026486684
sg7
F-0.700849761147154
sg8
F-0.58526292987045
sg9
F-0.35356575072400304
sg10
F-0.8036246087343064
sg11
F-0.7765726981077566
sg12
F-0.9843141339510634
sg13
F-0.5494013404104336
sg14
F-0.48067520631449434
sg15
F-0.3216794759528856
sg16
F-0.8464372603114863
sg17
F-0.5584787600126089
sg18
F0.03781738690588164
sg19
F-0.9400709099388361
sg20
F-0.45025560139438725
sg21
F-0.8514718612663097
sg22
F-0.8377586985871323
sg23
F-0.4986982142183204
sg24
F-0.08012506456135086
sg25
F-0.7342728795596806
sg26
F-0.34007813159400546
sg27
F-0.841049409684307
sg28
F-0.030797003707465992
sg29
F-0.8963136443978147
sg30
F-0.787512418898297
sg31
F-0.4410526364989319
sg32
F-0.10003089297357891
sg33
F-0.7875643379844421
sg34
F-0.9107404028280311
sg35
F-0.9624780627588442
sg36
F-0.5331759117369433
sg37
F-0.8189110746954184
sg38
F-0.8424074071160097
sg39
F-0.477065401126982
sg40
F-0.906737923676242
sg41
F-0.9592773368336555
sg42
F-0.9842566023441908
sg43
F-0.7897761689443504
sg44
F-0.7763044557262403
sg45
F-0.566348867052107
sg46
F-0.8790658638881866
sg47
F-0.7281558202382652
sg48
F-0.5061214973214287
sg49
F-0.49997456487288455
ssS'Malik_Monk'
p198
(dp199
g3
F-0.8297361165679151
sg4
F-0.078300730276096
sg5
F-0.6894396907593795
sg6
F-0.3492544571594641
sg7
F-0.6428988943388424
sg8
F-0.8051500914477037
sg9
F-0.30664934337293975
sg10
F-0.7178106863210634
sg11
F-0.7379446283305258
sg12
F-0.9520491371648967
sg13
F-0.8059014552487876
sg14
F-0.1341909939722551
sg15
F-0.2447578207915611
sg16
F-0.8392666732419054
sg17
F-0.36893671105150805
sg18
F0.05154144920068236
sg19
F-0.912733320872974
sg20
F-0.1683284882259693
sg21
F-0.722065076548513
sg22
F-0.761711136407238
sg23
F-0.32136012794174695
sg24
F-0.3069376421991936
sg25
F-0.7263224491840667
sg26
F-0.3338969927175221
sg27
F-0.7737633650725649
sg28
F0.5691810993962023
sg29
F-0.2321304666661917
sg30
F-0.17018496294992225
sg31
F0.5574024058312986
sg32
F-0.019119527357746392
sg33
F-0.8056617349913681
sg34
F-0.7767063698864054
sg35
F-0.954175383703537
sg36
F-0.7839115002714523
sg37
F-0.6899932193461353
sg38
F-0.7759762237984109
sg39
F0.027098939184180264
sg40
F-0.9276642150524422
sg41
F-0.9482332993003695
sg42
F-0.9509721388865828
sg43
F-0.5194190710284075
sg44
F-0.06446740470667955
sg45
F-0.2573636993589333
sg46
F-0.8068889833259703
sg47
F-0.5856978532745587
sg48
F-0.49874666087921293
sg49
F-0.49118733549482996
ssS'Sterling_Brown'
p200
(dp201
g3
F-0.7894541667634576
sg4
F-0.314079345105628
sg5
F-0.8423197548349208
sg6
F-0.44411147035687415
sg7
F-0.5715068414725605
sg8
F-0.7587530804182233
sg9
F-0.3565939041166928
sg10
F-0.7242334799858077
sg11
F-0.7698862097047594
sg12
F-0.9484515267696089
sg13
F-0.7628010263972167
sg14
F-0.393499525501978
sg15
F-0.294754417127332
sg16
F-0.8352830664526141
sg17
F-0.5195399270997075
sg18
F0.08784768927950906
sg19
F-0.9416848271114566
sg20
F-0.3938802742757636
sg21
F-0.8345871463324044
sg22
F-0.7635723971030005
sg23
F-0.4391260879455098
sg24
F-0.06171631153485478
sg25
F-0.7263191616646587
sg26
F-0.34656646510778355
sg27
F-0.7962555269765985
sg28
F0.2736345980362181
sg29
F-0.8801593810619222
sg30
F-0.599207011972511
sg31
F-0.5393297062027163
sg32
F-0.05575330732209784
sg33
F-0.7648970250728648
sg34
F-0.9006349277234645
sg35
F-0.9396579348725279
sg36
F-0.7291121016359854
sg37
F-0.8160302772476842
sg38
F-0.8009821879214826
sg39
F-0.43175344968961804
sg40
F-0.873164219297049
sg41
F-0.9316488947298458
sg42
F-0.9485760831477736
sg43
F-0.7370886832486996
sg44
F-0.8213846264198607
sg45
F-0.5069748929534587
sg46
F-0.876259205262466
sg47
F-0.725885240480223
sg48
F-0.5084965098891707
sg49
F-0.49848435760306703
ssS'Zhou_Qi'
p202
(dp203
g3
F-0.6410166402392126
sg4
F0.025558596377402466
sg5
F-0.6854697787405569
sg6
F-0.7392985169120035
sg7
F-0.42925500778791115
sg8
F-0.5258243708532904
sg9
F-0.26688738196746253
sg10
F-0.7157365629365361
sg11
F-0.9367878397259273
sg12
F-0.7463596559889852
sg13
F-0.593252619587282
sg14
F-0.22606237268236148
sg15
F-0.257883885921677
sg16
F-0.7391887872124775
sg17
F-0.3221729065457913
sg18
F0.18815388059346583
sg19
F-0.9805438362635368
sg20
F-0.01273527840291821
sg21
F-0.7417146961277038
sg22
F-0.7203637453004731
sg23
F-0.2800219874189014
sg24
F-0.8076781662429795
sg25
F-0.6809219635737781
sg26
F-0.30613317978745536
sg27
F-0.800453720626956
sg28
F0.384824821478384
sg29
F-0.45350615726694626
sg30
F-0.3198562731166623
sg31
F0.12884156597858304
sg32
F0.015586375214323675
sg33
F-0.6939854053459592
sg34
F-0.70492594247702
sg35
F-0.826661464235369
sg36
F-0.4676781044745817
sg37
F-0.7732257994850944
sg38
F-0.7984222711689031
sg39
F-0.27011312252972897
sg40
F-0.8884513457429271
sg41
F-0.8078898908164306
sg42
F-0.7331357680622346
sg43
F-0.4344855829831832
sg44
F-0.49516459785784195
sg45
F-0.3712734227091105
sg46
F-0.8080037877912521
sg47
F-0.6951492039420185
sg48
F-0.48951877804932287
sg49
F-0.47286494506585397
ssS"De'Aaron_Fox"
p204
(dp205
g3
F-0.8270924343924835
sg4
F-0.10737046502149578
sg5
F-0.7281202357884917
sg6
F-0.4796599842508189
sg7
F-0.5400306586777225
sg8
F-0.7941617747785678
sg9
F-0.31297860212515083
sg10
F-0.7532588881516544
sg11
F-0.8098281455120574
sg12
F-0.912733343100749
sg13
F-0.8064673005161055
sg14
F-0.17229796832458955
sg15
F-0.26332702315069445
sg16
F-0.8390304011163974
sg17
F-0.41540180982416564
sg18
F0.0909513553414303
sg19
F-0.9425496221959632
sg20
F-0.20287052565725658
sg21
F-0.763042459131968
sg22
F-0.7181451922447042
sg23
F-0.3860746858221188
sg24
F-0.46553522293052396
sg25
F-0.6951644553691658
sg26
F-0.3425565837134765
sg27
F-0.7250579769975745
sg28
F0.2688298765746922
sg29
F-0.506128998232826
sg30
F-0.3834058062024792
sg31
F0.03816552573407349
sg32
F-0.023533730227315895
sg33
F-0.7560239766745355
sg34
F-0.7855706135925286
sg35
F-0.9414537931947813
sg36
F-0.7685462275872648
sg37
F-0.537772084003612
sg38
F-0.7309042352912658
sg39
F-0.11796671515057736
sg40
F-0.8991861142671709
sg41
F-0.9340288323056766
sg42
F-0.9143232868616051
sg43
F-0.5153459759423119
sg44
F-0.4172310815947997
sg45
F-0.3251741214543693
sg46
F-0.7916552044725522
sg47
F-0.3744253951261165
sg48
F-0.5101165230924949
sg49
F-0.49952744545935407
ssS'Torrey_Craig'
p206
(dp207
g3
F-0.7743362647696176
sg4
F-0.13624064452658607
sg5
F-0.7594653302713156
sg6
F-0.353552634722418
sg7
F-0.6194333280702506
sg8
F-0.7180107135923904
sg9
F-0.30742487160912413
sg10
F-0.7985642280367072
sg11
F-0.6441318791077083
sg12
F-0.9422343633316469
sg13
F-0.7418580035678954
sg14
F-0.2975158321588711
sg15
F-0.24169069065750332
sg16
F-0.8312985647562984
sg17
F-0.3853388649857047
sg18
F0.050861427039261976
sg19
F-0.8834051582811769
sg20
F-0.2507276006429857
sg21
F-0.7709362696874481
sg22
F-0.8224789904851957
sg23
F-0.34354779244633593
sg24
F0.059949146797488105
sg25
F-0.8405818862320502
sg26
F-0.3163119906672018
sg27
F-0.7330256963389301
sg28
F0.3552333970836498
sg29
F-0.8500871162020628
sg30
F-0.7853983158883637
sg31
F-0.2127629735951804
sg32
F-0.015824145006163935
sg33
F-0.7734610754470665
sg34
F-0.8760601719901385
sg35
F-0.915407539586973
sg36
F-0.6897438043565907
sg37
F-0.8467154341557098
sg38
F-0.7391651066272775
sg39
F-0.4742718402087568
sg40
F-0.9350833892646246
sg41
F-0.9027082293197876
sg42
F-0.942952281416232
sg43
F-0.7116363639078542
sg44
F-0.7221392723753723
sg45
F-0.35576824301556254
sg46
F-0.9133229973074305
sg47
F-0.7850732723525597
sg48
F-0.4886635917219394
sg49
F-0.4806252211878169
ssS'Gian_Clavell'
p208
(dp209
g3
F-0.568534394956361
sg4
F-0.3541086779376027
sg5
F-0.8540767296514054
sg6
F-0.5349625728375527
sg7
F-0.7461189406379786
sg8
F-0.5786094223277658
sg9
F-0.3529690785723633
sg10
F-0.7090480595351648
sg11
F-0.8330082018751342
sg12
F-0.976259400293978
sg13
F-0.5442908328197334
sg14
F-0.44864074016579053
sg15
F-0.32910611361395636
sg16
F-0.8463376977397616
sg17
F-0.552937902201586
sg18
F0.0371737387132013
sg19
F-0.9598809014320114
sg20
F-0.4102541958332323
sg21
F-0.8462407957316318
sg22
F-0.7361377119583782
sg23
F-0.47887009952616666
sg24
F-0.2978061252376596
sg25
F-0.7179940319293331
sg26
F-0.34482399680711295
sg27
F-0.8651399228734507
sg28
F0.0279482511817606
sg29
F-0.931526841929839
sg30
F-0.6318216607286952
sg31
F-0.782995738250733
sg32
F-0.10740364403822593
sg33
F-0.7858976844695942
sg34
F-0.8941958282193938
sg35
F-0.9564728510307866
sg36
F-0.5250072459871477
sg37
F-0.8358472898616036
sg38
F-0.8651460285758334
sg39
F-0.2879430617196044
sg40
F-0.8608762814206825
sg41
F-0.9528706034722424
sg42
F-0.9749994102118242
sg43
F-0.747338057260394
sg44
F-0.8845302221506255
sg45
F-0.5803462591355282
sg46
F-0.8632759250591151
sg47
F-0.7581684017521094
sg48
F-0.506595984873623
sg49
F-0.5027177560395303
ssS'Derrick_Walton'
p210
(dp211
g3
F-0.8804275657172838
sg4
F-0.23167685668390986
sg5
F-0.7525831396614089
sg6
F-0.23389286495614203
sg7
F-0.6672632267266392
sg8
F-0.8654226099144238
sg9
F-0.3068759654754278
sg10
F-0.7804045741625443
sg11
F-0.7846731133745011
sg12
F-0.975510927243746
sg13
F-0.86453111028186
sg14
F-0.2841604029063693
sg15
F-0.2585264852467966
sg16
F-0.8618813252975308
sg17
F-0.3964277380544278
sg18
F0.07014373531677806
sg19
F-0.9147900495740572
sg20
F-0.23183490231779302
sg21
F-0.7741194539526683
sg22
F-0.8199491257755648
sg23
F-0.3502158048770423
sg24
F-0.303325283781516
sg25
F-0.7752581079963896
sg26
F-0.32113037912517045
sg27
F-0.6328719591329086
sg28
F0.08285535132310004
sg29
F-0.919088661369174
sg30
F-0.8557667441798317
sg31
F-0.5632453666350076
sg32
F-0.026149514126826
sg33
F-0.7777449674182625
sg34
F-0.8377930900873519
sg35
F-0.9673238630246468
sg36
F-0.8477514287419303
sg37
F-0.6076282637096979
sg38
F-0.6403967243808236
sg39
F-0.4255004736114389
sg40
F-0.9340831159661847
sg41
F-0.9641840454235837
sg42
F-0.9741548403595758
sg43
F-0.6057854409622769
sg44
F-0.8293240816574438
sg45
F-0.390458554336778
sg46
F-0.8530681496027421
sg47
F-0.4671162732307806
sg48
F-0.4981609830555638
sg49
F-0.4874112349400347
ssS'Xavier_Rathan-Mayes'
p212
(dp213
g3
F-0.570444708365261
sg4
F-0.1878881273557223
sg5
F-0.8117439230171695
sg6
F-0.584945167654215
sg7
F-0.6722946086891668
sg8
F-0.5798807135449432
sg9
F-0.3475069645465993
sg10
F-0.7915950874017821
sg11
F-0.7998323895042703
sg12
F-0.9529248491061959
sg13
F-0.5458164744047195
sg14
F-0.3460514699486539
sg15
F-0.3277660983548689
sg16
F-0.8785761115306568
sg17
F-0.4947085774742528
sg18
F0.04433005246804473
sg19
F-0.9488537850220509
sg20
F-0.3311807960899223
sg21
F-0.8265724084857273
sg22
F-0.7023291003364383
sg23
F-0.47744718611268633
sg24
F-0.2957184982224948
sg25
F-0.7228180764119168
sg26
F-0.3574253142081851
sg27
F-0.8513262951284135
sg28
F-0.06164029220904965
sg29
F-0.8963554495881574
sg30
F-0.5801077434150734
sg31
F-0.6371018066347583
sg32
F-0.10376749885604344
sg33
F-0.7925338135514121
sg34
F-0.8628901379951188
sg35
F-0.9582322273837949
sg36
F-0.5286769357490557
sg37
F-0.7319935373683965
sg38
F-0.8522138679609792
sg39
F-0.44372947433304016
sg40
F-0.878933745686806
sg41
F-0.954852702465457
sg42
F-0.9507612481147547
sg43
F-0.7026842408434242
sg44
F-0.8503041547167037
sg45
F-0.5025166303476946
sg46
F-0.8192274107345219
sg47
F-0.6078434245665845
sg48
F-0.5212641679986835
sg49
F-0.517200978258092
ssS'T.J._Leaf'
p214
(dp215
g3
F-0.6137481985599806
sg4
F-0.023649006762663443
sg5
F-0.6890655461354253
sg6
F-0.5395878441433338
sg7
F-0.4959410405322983
sg8
F-0.47685907359778745
sg9
F-0.27884656624919973
sg10
F-0.7270303284829114
sg11
F-0.8462052199773918
sg12
F-0.8900962740022451
sg13
F-0.5680952853066044
sg14
F-0.17696009829076803
sg15
F-0.2619863431887212
sg16
F-0.7807957103376276
sg17
F-0.34808789810395974
sg18
F0.05876887417982776
sg19
F-0.9501717239785084
sg20
F-0.08886190316140839
sg21
F-0.7356609874139213
sg22
F-0.7342666385701575
sg23
F-0.30608556170912715
sg24
F-0.594351438954836
sg25
F-0.7302113618768596
sg26
F-0.31240663804057217
sg27
F-0.8464346636143373
sg28
F0.12446353678675495
sg29
F-0.42414981457008516
sg30
F-0.3991127417859842
sg31
F0.19317017691682142
sg32
F-0.03387111217415427
sg33
F-0.7480025331166108
sg34
F-0.7388938221569167
sg35
F-0.7943068492335879
sg36
F-0.40805504779356844
sg37
F-0.8440958002815825
sg38
F-0.8456906298886813
sg39
F-0.25899437438446854
sg40
F-0.911000732770317
sg41
F-0.7711409628856872
sg42
F-0.8873820575865843
sg43
F-0.46129685688248057
sg44
F-0.39794211747517066
sg45
F-0.30750207685987246
sg46
F-0.8187013115088236
sg47
F-0.7883501103936617
sg48
F-0.48878016938307306
sg49
F-0.4758114629652999
ssS'D.J._Wilson'
p216
(dp217
g3
F-0.7242678861871105
sg4
F-0.27629895335898075
sg5
F-0.772414985956119
sg6
F-0.5049277868423093
sg7
F-0.5010016962463596
sg8
F-0.653316184815311
sg9
F-0.3186974127475223
sg10
F-0.8567313848257946
sg11
F-0.8728770197956982
sg12
F-0.8628720753087882
sg13
F-0.6918057265518903
sg14
F-0.3524768690184389
sg15
F-0.29130137850176496
sg16
F-0.8469020437784753
sg17
F-0.4602982811861833
sg18
F0.13946554380931378
sg19
F-0.9562224109959386
sg20
F-0.26770750393996806
sg21
F-0.8124591476102507
sg22
F-0.8344910452466608
sg23
F-0.44857068810289286
sg24
F-0.5955066722949243
sg25
F-0.7745686546086341
sg26
F-0.3337067102069068
sg27
F-0.658265997168513
sg28
F-0.1158603314901814
sg29
F-0.9087406603571042
sg30
F-0.7597412058735268
sg31
F-0.34898768792696905
sg32
F-0.034304783681347435
sg33
F-0.7907111791123145
sg34
F-0.8161925749601802
sg35
F-0.8873327017850202
sg36
F-0.6116005879721308
sg37
F-0.8908539445752134
sg38
F-0.6596941085497579
sg39
F-0.3897492244986782
sg40
F-0.9398438023771805
sg41
F-0.8734842854074929
sg42
F-0.86845338253752
sg43
F-0.572462461502197
sg44
F-0.7648766507557552
sg45
F-0.4453394812978952
sg46
F-0.8668012060860958
sg47
F-0.8471677797358473
sg48
F-0.5044371392303292
sg49
F-0.49750461170342647
ssS'C.J._Williams'
p218
(dp219
g3
F-0.7491729068301223
sg4
F-0.1776341479576506
sg5
F-0.8281163501998914
sg6
F-0.5269198759008608
sg7
F-0.6663624274347891
sg8
F-0.742375423763842
sg9
F-0.3624568643311862
sg10
F-0.7264851815663664
sg11
F-0.8254202269051597
sg12
F-0.9429928902027773
sg13
F-0.7142423671461535
sg14
F-0.38126484206179306
sg15
F-0.3164088142550613
sg16
F-0.8447905707430122
sg17
F-0.4634248759850157
sg18
F0.08267273647898903
sg19
F-0.9604962392489536
sg20
F-0.28035603775391227
sg21
F-0.8317222660408923
sg22
F-0.6688904353239752
sg23
F-0.41282134812072724
sg24
F-0.21632624625184999
sg25
F-0.6648171593798451
sg26
F-0.36054605310288185
sg27
F-0.8421679913624325
sg28
F0.05922798510918487
sg29
F-0.7686057543457675
sg30
F-0.5044790687104136
sg31
F-0.596226023100722
sg32
F-0.07865103165213906
sg33
F-0.7702356591983894
sg34
F-0.8676201109509378
sg35
F-0.9588055606056056
sg36
F-0.7079784674357279
sg37
F-0.7991069200945603
sg38
F-0.8427110369058755
sg39
F-0.3155366257006995
sg40
F-0.8274589701464918
sg41
F-0.9557700073320099
sg42
F-0.9423691498656288
sg43
F-0.719840467257584
sg44
F-0.7859480726779168
sg45
F-0.5452606941627437
sg46
F-0.8304799381895015
sg47
F-0.704927507663218
sg48
F-0.5179776352384144
sg49
F-0.5100775979397898
ssS'Frank_Mason_III'
p220
(dp221
g3
F-0.8596586777332692
sg4
F-0.1406964907785358
sg5
F-0.7568934373540604
sg6
F-0.37055694848176707
sg7
F-0.5445701948182479
sg8
F-0.8523144576589715
sg9
F-0.3211053155891534
sg10
F-0.7411485823154056
sg11
F-0.7790889008186525
sg12
F-0.9703135327217849
sg13
F-0.8412308644025039
sg14
F-0.2286517326205858
sg15
F-0.2639820159154315
sg16
F-0.8045799269168912
sg17
F-0.41554873780804114
sg18
F0.07038603323054823
sg19
F-0.926135249014375
sg20
F-0.24031310948318926
sg21
F-0.7749590163986698
sg22
F-0.76107065109618
sg23
F-0.3635784091406938
sg24
F-0.2594822665702219
sg25
F-0.7009151042887163
sg26
F-0.3342105881262274
sg27
F-0.6894048036867801
sg28
F0.3552754934341972
sg29
F-0.5155732969294726
sg30
F-0.4317256176739617
sg31
F-0.10077603070140803
sg32
F-0.031234297928456674
sg33
F-0.7386480670757257
sg34
F-0.8307581883396854
sg35
F-0.9742747704575433
sg36
F-0.8339334481908124
sg37
F-0.5061677652653976
sg38
F-0.7005458293179245
sg39
F-0.20322574726556766
sg40
F-0.9104885262249673
sg41
F-0.9710012493208531
sg42
F-0.9698178304080766
sg43
F-0.6042096478826475
sg44
F-0.49258162612520795
sg45
F-0.3832985487013001
sg46
F-0.8000243504363994
sg47
F-0.3272161636214713
sg48
F-0.5049011641391439
sg49
F-0.49035414060883253
ssS'PJ_Dozier'
p222
(dp223
g3
F-0.8384860488250071
sg4
F-0.23635394206194388
sg5
F-0.7853291177712973
sg6
F-0.4523862040812619
sg7
F-0.6141585529171982
sg8
F-0.8203033910095238
sg9
F-0.33624235348066783
sg10
F-0.7591528464323694
sg11
F-0.8457917564356148
sg12
F-0.9528072076222112
sg13
F-0.8167409222902813
sg14
F-0.2700319278697608
sg15
F-0.28859456576928066
sg16
F-0.8168183179253976
sg17
F-0.48854345168283225
sg18
F0.06761042288785882
sg19
F-0.9588320849730219
sg20
F-0.2963962347193583
sg21
F-0.807482380384075
sg22
F-0.7945280423384888
sg23
F-0.43154268240848437
sg24
F-0.4883693615676328
sg25
F-0.6805502729099067
sg26
F-0.34913511050082585
sg27
F-0.7513758149947525
sg28
F0.47961261595133164
sg29
F-0.7736037265998171
sg30
F-0.6294403631065284
sg31
F-0.17403979883827014
sg32
F-0.05686551102568427
sg33
F-0.8190156608668908
sg34
F-0.8264970327982756
sg35
F-0.9602395167179849
sg36
F-0.7987255655429921
sg37
F-0.4885775629987005
sg38
F-0.7572040302370386
sg39
F-0.2551795188719769
sg40
F-0.921749037467079
sg41
F-0.9560234478973202
sg42
F-0.9516526210910213
sg43
F-0.5647318154298101
sg44
F-0.6213929668365576
sg45
F-0.41052357186542476
sg46
F-0.8011832721876284
sg47
F-0.27426392010321016
sg48
F-0.510612850438081
sg49
F-0.4996331065294929
ssS"Royce_O'Neale"
p224
(dp225
g3
F-0.8206669968053312
sg4
F-0.19695886892231304
sg5
F-0.814030920753527
sg6
F-0.5245710032405236
sg7
F-0.6286903904075243
sg8
F-0.7864178837930921
sg9
F-0.35818722261005914
sg10
F-0.810445347913821
sg11
F-0.7695561552497204
sg12
F-0.9458339658442332
sg13
F-0.7911719483969968
sg14
F-0.36034511857930723
sg15
F-0.29673269292940085
sg16
F-0.825987964597355
sg17
F-0.46256795594762207
sg18
F0.07933576511205384
sg19
F-0.9412347354847729
sg20
F-0.302651050354691
sg21
F-0.828350021651175
sg22
F-0.800515651885592
sg23
F-0.43060431202019683
sg24
F-0.08616561924183055
sg25
F-0.6760713373671111
sg26
F-0.3567669827755342
sg27
F-0.7532907660270305
sg28
F0.2416189275499799
sg29
F-0.9326493499050771
sg30
F-0.7847030572800193
sg31
F-0.41035097550767796
sg32
F-0.06056680583875139
sg33
F-0.7854727210061966
sg34
F-0.8727961852687541
sg35
F-0.9451854468932336
sg36
F-0.7658524436985648
sg37
F-0.8217950368062429
sg38
F-0.7629880209760397
sg39
F-0.4350732997359288
sg40
F-0.9152811119465982
sg41
F-0.9373339069596105
sg42
F-0.9437815148158074
sg43
F-0.7146516983481438
sg44
F-0.8099355054679775
sg45
F-0.4842078535978642
sg46
F-0.8444836491746722
sg47
F-0.7514273327771586
sg48
F-0.5125740466324348
sg49
F-0.5049029700901189
ssS'Damyean_Dotson'
p226
(dp227
g3
F-0.590701368459367
sg4
F-0.42621142352301733
sg5
F-0.8633677690455439
sg6
F-0.5540905586656131
sg7
F-0.7019636506929245
sg8
F-0.6042080445550538
sg9
F-0.37235936350465443
sg10
F-0.7918242018971855
sg11
F-0.7680284806108528
sg12
F-0.9868154412670425
sg13
F-0.5723310394386185
sg14
F-0.45014244525046515
sg15
F-0.3410370332163934
sg16
F-0.8498927821363114
sg17
F-0.6001831883422609
sg18
F0.016567461836734167
sg19
F-0.9415664615403674
sg20
F-0.5067332716790893
sg21
F-0.8585931408989571
sg22
F-0.8336063356185683
sg23
F-0.5310036683128327
sg24
F-0.09768004219410824
sg25
F-0.7257560584858658
sg26
F-0.3540030981353478
sg27
F-0.9060756277150037
sg28
F0.21070867171302995
sg29
F-0.9803702529289797
sg30
F-0.8970657085090636
sg31
F-0.6076000387848888
sg32
F-0.12674773229734043
sg33
F-0.7926982732366366
sg34
F-0.9218013075051765
sg35
F-0.9652296622774541
sg36
F-0.5559310307368213
sg37
F-0.8256305324291193
sg38
F-0.9064052080198912
sg39
F-0.6473680619111958
sg40
F-0.9037659873686643
sg41
F-0.96228380306815
sg42
F-0.9861398619230789
sg43
F-0.7825830927349948
sg44
F-0.9114896589706767
sg45
F-0.5506115733458479
sg46
F-0.8668444527379677
sg47
F-0.7366734794966503
sg48
F-0.5148319259607335
sg49
F-0.5087736668230113
ssS'Devin_Robinson'
p228
(dp229
g3
F-0.8293813768192453
sg4
F-0.054797480136727264
sg5
F-0.7459141660655176
sg6
F-0.5416368549737183
sg7
F-0.5945054259061678
sg8
F-0.781329669976262
sg9
F-0.3152338608181093
sg10
F-0.8887641160557976
sg11
F-0.7632370938749357
sg12
F-0.9053452232724212
sg13
F-0.8044495875331278
sg14
F-0.3418076081400301
sg15
F-0.26126561653172825
sg16
F-0.833263100185913
sg17
F-0.4000773102372702
sg18
F0.0939496050861022
sg19
F-0.9412750850110306
sg20
F-0.20658858455303744
sg21
F-0.7945550821667328
sg22
F-0.8971854192085043
sg23
F-0.3762718165208967
sg24
F-0.18892301663495098
sg25
F-0.802428408564366
sg26
F-0.3288450256974495
sg27
F-0.719369331592398
sg28
F0.11541231005387662
sg29
F-0.5668697072796594
sg30
F-0.4573522909633086
sg31
F-0.08462559455269276
sg32
F-0.020418881478792356
sg33
F-0.753901798961626
sg34
F-0.8046390810544869
sg35
F-0.927512650750713
sg36
F-0.7568940275699585
sg37
F-0.7519195435969523
sg38
F-0.7243521430784348
sg39
F-0.3923153497899579
sg40
F-0.958862816221951
sg41
F-0.9193693581682065
sg42
F-0.9046231294237442
sg43
F-0.627062365079461
sg44
F-0.5645896479464017
sg45
F-0.39029945895439677
sg46
F-0.9044919487749374
sg47
F-0.6809653793827019
sg48
F-0.5077412436767251
sg49
F-0.4802812286591552
ssS'Reggie_Hearn'
p230
(dp231
g3
F-0.591759074263171
sg4
F-0.23262048888141518
sg5
F-0.8425710879098782
sg6
F-0.5526713291561047
sg7
F-0.656431915673834
sg8
F-0.5933754261276697
sg9
F-0.3401527739058058
sg10
F-0.7983563884556739
sg11
F-0.7800544056835816
sg12
F-0.9481251572312752
sg13
F-0.569277838762475
sg14
F-0.45220926517415533
sg15
F-0.30800724333853025
sg16
F-0.8854483420647383
sg17
F-0.5405872221799325
sg18
F0.06908734263064462
sg19
F-0.945213197486472
sg20
F-0.416627938476581
sg21
F-0.8469119967992129
sg22
F-0.822078245064352
sg23
F-0.4939623811344402
sg24
F-0.1674081469545876
sg25
F-0.8362872283651966
sg26
F-0.3357816050008064
sg27
F-0.8213840971215141
sg28
F0.1211038966934328
sg29
F-0.747354536228722
sg30
F-0.49846219286727844
sg31
F-0.49971825077562504
sg32
F-0.07603834852763401
sg33
F-0.771684498599673
sg34
F-0.8973578904234063
sg35
F-0.9531678632197902
sg36
F-0.5449269374829612
sg37
F-0.8038629693238121
sg38
F-0.8245356840873523
sg39
F-0.3438345930052678
sg40
F-0.9296167799376155
sg41
F-0.9493161140176916
sg42
F-0.9476213733839404
sg43
F-0.7411212565821546
sg44
F-0.7534427912192777
sg45
F-0.5211756622657361
sg46
F-0.9143496109312024
sg47
F-0.7047257595814248
sg48
F-0.5067347610097831
sg49
F-0.4983869261039656
ssS'Myke_Henry'
p232
(dp233
g3
F-0.8677886205247208
sg4
F-0.1559548299851788
sg5
F-0.735394500688593
sg6
F-0.507982735861464
sg7
F-0.720699459579645
sg8
F-0.7802176260057092
sg9
F-0.28895728577524926
sg10
F-0.8426201673500664
sg11
F-0.7616283066481316
sg12
F-0.9559764912650531
sg13
F-0.8429621577081734
sg14
F-0.2972248395424878
sg15
F-0.2368537364228316
sg16
F-0.8689118259770067
sg17
F-0.45472465722124794
sg18
F0.07387775990848477
sg19
F-0.9299509234688024
sg20
F-0.2818573862308494
sg21
F-0.7769311108523764
sg22
F-0.8696533159890207
sg23
F-0.41901383217824995
sg24
F-0.3369863721395181
sg25
F-0.870137570495214
sg26
F-0.31249762685021715
sg27
F-0.5863592768930319
sg28
F-0.0006638553751523446
sg29
F-0.9503805186545929
sg30
F-0.8762553122341254
sg31
F-0.5101944147765329
sg32
F-0.0028801572421336408
sg33
F-0.7821839271495459
sg34
F-0.8054435772197908
sg35
F-0.8948715888386988
sg36
F-0.7626602093634195
sg37
F-0.776302068708941
sg38
F-0.598063487361066
sg39
F-0.5864279320894317
sg40
F-0.9541817581191778
sg41
F-0.8807184414055327
sg42
F-0.9545763216693355
sg43
F-0.5905729904239417
sg44
F-0.8435293289517801
sg45
F-0.35220129707207326
sg46
F-0.9234720625147774
sg47
F-0.7187324759813903
sg48
F-0.49208798015036137
sg49
F-0.4688363671590896
ssS'Aaron_Jackson'
p234
(dp235
g3
F-0.8470835961491221
sg4
F-0.01808987426525037
sg5
F-0.7637410997556884
sg6
F-0.33495855274798586
sg7
F-0.5133243168540493
sg8
F-0.8254492417250556
sg9
F-0.30428747662839295
sg10
F-0.8363666692267475
sg11
F-0.7927204292804525
sg12
F-0.9789248168153503
sg13
F-0.8224882059907719
sg14
F-0.2784992079937566
sg15
F-0.24767738260958155
sg16
F-0.8121079162169486
sg17
F-0.32889616343382533
sg18
F0.07063113260535701
sg19
F-0.9280270651299714
sg20
F-0.13330757464861623
sg21
F-0.794261113284412
sg22
F-0.8604663355977248
sg23
F-0.292692187407345
sg24
F-0.20375875665756588
sg25
F-0.5475333267456495
sg26
F-0.32463415482109403
sg27
F-0.6637008489751308
sg28
F0.6339285539307093
sg29
F-0.45637860327572927
sg30
F-0.3799494802699528
sg31
F0.39543665502044384
sg32
F-0.0150220387793698
sg33
F-0.7632689684607493
sg34
F-0.8357140346257169
sg35
F-0.963827429960518
sg36
F-0.8109110261096399
sg37
F-0.3640949113292386
sg38
F-0.6798265745781906
sg39
F-0.2706608481126122
sg40
F-0.9451142113287477
sg41
F-0.9587006917786198
sg42
F-0.9799019169750997
sg43
F-0.661070525482752
sg44
F-0.3931312470708563
sg45
F-0.45379095476320463
sg46
F-0.7476377173425546
sg47
F-0.1286599983340816
sg48
F-0.49674096850558225
sg49
F-0.4847910174623454
ssS'Jarrett_Allen'
p236
(dp237
g3
F-0.6788928934181493
sg4
F0.04995306822525378
sg5
F-0.715773092243163
sg6
F-0.7230915543657006
sg7
F-0.32498276759638695
sg8
F-0.5221632351533531
sg9
F-0.26770861534349016
sg10
F-0.7268146704122839
sg11
F-0.9947303456951196
sg12
F-0.706488730907904
sg13
F-0.6297624282767039
sg14
F-0.30066538789480723
sg15
F-0.25864959436949253
sg16
F-0.7351948704384423
sg17
F-0.301016266066545
sg18
F0.1787184378197969
sg19
F-0.9986328151391813
sg20
F0.045780735302412875
sg21
F-0.7695877658621741
sg22
F-0.6993398735166418
sg23
F-0.27045075782126987
sg24
F-0.9832966357814714
sg25
F-0.7220870505262752
sg26
F-0.2936119201542016
sg27
F-0.8029086360383961
sg28
F0.254211766901714
sg29
F-0.6248725365259327
sg30
F-0.5156471109429664
sg31
F0.524673491219392
sg32
F0.012642160625255982
sg33
F-0.7504713723639013
sg34
F-0.7171402771039816
sg35
F-0.8007402316451525
sg36
F-0.47963312506330175
sg37
F-0.9059035618249877
sg38
F-0.8129159003547115
sg39
F-0.15609926327612544
sg40
F-0.8668687647541007
sg41
F-0.7696043893986497
sg42
F-0.701595806847887
sg43
F-0.4563355643239181
sg44
F-0.32184965798251897
sg45
F-0.4510659100190377
sg46
F-0.8540229762785689
sg47
F-0.873318725396644
sg48
F-0.4842666187720286
sg49
F-0.46588112093654455
ssS'Erik_McCree'
p238
(dp239
g3
F-0.6862163868193929
sg4
F-0.09811528414281244
sg5
F-0.7814065173184801
sg6
F-0.47643257607624223
sg7
F-0.4598800343219541
sg8
F-0.6244603738879938
sg9
F-0.3184548637353725
sg10
F-0.7822984404009328
sg11
F-0.7686644777883265
sg12
F-0.9096298309045588
sg13
F-0.645814048906321
sg14
F-0.22166274689048232
sg15
F-0.27969318081123534
sg16
F-0.8683062707151917
sg17
F-0.4090504074498849
sg18
F0.134524398022738
sg19
F-0.9348239902098165
sg20
F-0.226028734272668
sg21
F-0.8002935920453601
sg22
F-0.7796312562098543
sg23
F-0.3780990540509132
sg24
F-0.28289678412968433
sg25
F-0.7805992148896338
sg26
F-0.34041023005016513
sg27
F-0.7263998090501486
sg28
F0.13456430379968054
sg29
F-0.9037784635571403
sg30
F-0.8501476071751868
sg31
F-0.10170026303494428
sg32
F-0.02431747831349127
sg33
F-0.7625223728811019
sg34
F-0.8465825271086636
sg35
F-0.8990312437691773
sg36
F-0.5852476305885703
sg37
F-0.7392315816285233
sg38
F-0.7387438970823147
sg39
F-0.5066182005104176
sg40
F-0.9165709131267422
sg41
F-0.8832388855374629
sg42
F-0.9074041963355355
sg43
F-0.5598329769374993
sg44
F-0.7415265255270225
sg45
F-0.32849745472582564
sg46
F-0.8779729100262693
sg47
F-0.6311259481056839
sg48
F-0.5239083403340467
sg49
F-0.5094517943826927
ssS'Wesley_Iwundu'
p240
(dp241
g3
F-0.7646211227398227
sg4
F-0.05705714015699593
sg5
F-0.7880594766582422
sg6
F-0.5184353651205492
sg7
F-0.47276526035906696
sg8
F-0.6919867640527883
sg9
F-0.31589036433847967
sg10
F-0.7972984118616868
sg11
F-0.8422695261088662
sg12
F-0.9188430424580609
sg13
F-0.7314271090875488
sg14
F-0.3755574404505556
sg15
F-0.2530578191396004
sg16
F-0.7816966886060629
sg17
F-0.3935531333395137
sg18
F0.14608680912041686
sg19
F-0.9538833221823076
sg20
F-0.17927440205220896
sg21
F-0.813304226923551
sg22
F-0.810438385997263
sg23
F-0.34559862362743765
sg24
F-0.38564603162691047
sg25
F-0.7304050471639532
sg26
F-0.3184257045669665
sg27
F-0.7106704341214503
sg28
F0.42765584827285197
sg29
F-0.6819515988400655
sg30
F-0.5496861759046889
sg31
F0.24937456892614107
sg32
F0.006435796424892617
sg33
F-0.7558344550387213
sg34
F-0.8341761544759349
sg35
F-0.9003788931608764
sg36
F-0.6650000159006991
sg37
F-0.7880865057923332
sg38
F-0.722330921582887
sg39
F-0.2783562368120113
sg40
F-0.9166883117053446
sg41
F-0.8837420158212974
sg42
F-0.9201119222044223
sg43
F-0.6403251173126069
sg44
F-0.49478915647855803
sg45
F-0.48259464342147324
sg46
F-0.8732742971340245
sg47
F-0.7074486369501207
sg48
F-0.4944902704990424
sg49
F-0.48118735962918713
ssS'Zach_Collins'
p242
(dp243
g3
F-0.6202325987356061
sg4
F-0.003694227608068771
sg5
F-0.6297749515072864
sg6
F-0.6028887252663194
sg7
F-0.36085058288842364
sg8
F-0.4878876534412844
sg9
F-0.23720769424315213
sg10
F-0.5061985836547268
sg11
F-0.9301714963747738
sg12
F-0.6893043010059564
sg13
F-0.5619687961189035
sg14
F-0.027772082377459716
sg15
F-0.2407367441710247
sg16
F-0.7368641841376348
sg17
F-0.3364234408377409
sg18
F0.18791164547957728
sg19
F-0.9764487352563657
sg20
F-0.03147675873114977
sg21
F-0.6721771140391611
sg22
F-0.5600498472163453
sg23
F-0.2704269023428655
sg24
F-0.8401726955553535
sg25
F-0.7152002188287486
sg26
F-0.29838083231590307
sg27
F-0.7961463358896801
sg28
F0.4941268545810919
sg29
F-0.1737319629085876
sg30
F0.03523602583194883
sg31
F0.621961526311988
sg32
F0.03326321450354359
sg33
F-0.6677389462663015
sg34
F-0.6533262162509209
sg35
F-0.8170006008371603
sg36
F-0.43723319957276624
sg37
F-0.767409748671515
sg38
F-0.7997468361853943
sg39
F0.045797241821494465
sg40
F-0.8728749705371254
sg41
F-0.792360609974383
sg42
F-0.6895969486975615
sg43
F-0.30232351811063984
sg44
F-0.09468726462744378
sg45
F-0.23249501448541351
sg46
F-0.7687617011925212
sg47
F-0.7107178941720103
sg48
F-0.4863334167155065
sg49
F-0.46879158293276235
ssS'Jabari_Bird'
p244
(dp245
g3
F-0.575329634583345
sg4
F-0.4027678519773273
sg5
F-0.8359250853696968
sg6
F-0.5234210154546706
sg7
F-0.7216444800887172
sg8
F-0.5792790992781005
sg9
F-0.36518101481815335
sg10
F-0.80557737279346
sg11
F-0.7839264792661296
sg12
F-0.9839675404820455
sg13
F-0.5529389945404906
sg14
F-0.4184653855795709
sg15
F-0.3378115046593988
sg16
F-0.8110039966198297
sg17
F-0.5789972688668908
sg18
F-0.0018036488609915972
sg19
F-0.9456563893439549
sg20
F-0.46223488109008043
sg21
F-0.8436988345157028
sg22
F-0.841330036188958
sg23
F-0.5199953770387238
sg24
F-0.21130060020349656
sg25
F-0.7601647628897011
sg26
F-0.3491026003978179
sg27
F-0.866998350517968
sg28
F-0.031879644572526566
sg29
F-0.93340545627565
sg30
F-0.7770184010063914
sg31
F-0.6001411076690304
sg32
F-0.12985491919132908
sg33
F-0.7812890418298835
sg34
F-0.8902686960257419
sg35
F-0.9525132885354961
sg36
F-0.5278429231188413
sg37
F-0.8594064494532121
sg38
F-0.869140880681046
sg39
F-0.5471326964508526
sg40
F-0.9093272646276668
sg41
F-0.9469821686577071
sg42
F-0.9851880149978437
sg43
F-0.7147958209026908
sg44
F-0.8454460246721485
sg45
F-0.49872230016882046
sg46
F-0.8856165654507474
sg47
F-0.791971531911327
sg48
F-0.5112705509393961
sg49
F-0.5059235253097718
ssS'Marcus_Paige'
p246
(dp247
g3
F-0.8204571754336618
sg4
F-0.10314192399099087
sg5
F-0.7329248962346294
sg6
F-0.22266978597900716
sg7
F-0.5624414281129696
sg8
F-0.7862173884698648
sg9
F-0.2868949084332617
sg10
F-0.6082411755904199
sg11
F-0.809903523871164
sg12
F-0.9528417796867137
sg13
F-0.7963669529049856
sg14
F-0.17449453350495658
sg15
F-0.24332234670095448
sg16
F-0.8202144674708861
sg17
F-0.35836717343748425
sg18
F0.08450489112184785
sg19
F-0.9317277544302499
sg20
F-0.14927640158960445
sg21
F-0.7411541712761948
sg22
F-0.6180545229284617
sg23
F-0.3177792103024727
sg24
F-0.40030741129807124
sg25
F-0.7219134850506712
sg26
F-0.3145679195716284
sg27
F-0.6868670081847279
sg28
F0.5081313309314266
sg29
F-0.7786124925668965
sg30
F-0.6701541528666813
sg31
F-0.0524162522844521
sg32
F-0.006174599484180368
sg33
F-0.7591189619819529
sg34
F-0.8011971418043795
sg35
F-0.9427233416635901
sg36
F-0.7631805170972522
sg37
F-0.5053825217879125
sg38
F-0.6939950416987903
sg39
F-0.37864512544275214
sg40
F-0.8544739148132905
sg41
F-0.9357384520960202
sg42
F-0.9492153919445987
sg43
F-0.5461897229724302
sg44
F-0.6181280414240613
sg45
F-0.3560932468435942
sg46
F-0.8146875465739482
sg47
F-0.31425720882259905
sg48
F-0.49196089156451944
sg49
F-0.48190607020428244
ssS'Cedi_Osman'
p248
(dp249
g3
F-0.7916344565387571
sg4
F-0.03623493349948946
sg5
F-0.7341415628886783
sg6
F-0.3682946514626623
sg7
F-0.5084987513244974
sg8
F-0.731976437227069
sg9
F-0.30278770273711814
sg10
F-0.7253213151805137
sg11
F-0.7919868115352601
sg12
F-0.8898408641056967
sg13
F-0.7575617134435625
sg14
F-0.22395391772218995
sg15
F-0.2487259956114823
sg16
F-0.8164454061841703
sg17
F-0.35274253720428916
sg18
F0.12524005489434228
sg19
F-0.9304625753278818
sg20
F-0.14408942714353784
sg21
F-0.7588887618766371
sg22
F-0.757289723486294
sg23
F-0.3009131872249877
sg24
F-0.315704077142939
sg25
F-0.6915939501671524
sg26
F-0.32578576757654776
sg27
F-0.6966516620004671
sg28
F0.5513434146760523
sg29
F-0.27732015512821484
sg30
F-0.1792681454738251
sg31
F0.7023586756766774
sg32
F0.003520743483505555
sg33
F-0.714870326199518
sg34
F-0.8036789875607967
sg35
F-0.9164842999042985
sg36
F-0.7081187564430556
sg37
F-0.7750351010300335
sg38
F-0.7097573989910322
sg39
F-0.09388408957636289
sg40
F-0.9139789293318392
sg41
F-0.9036599968199409
sg42
F-0.8895661602042331
sg43
F-0.5848202681706323
sg44
F-0.13555947737937699
sg45
F-0.3768070797058922
sg46
F-0.8031253440417364
sg47
F-0.6934682374194876
sg48
F-0.49824918578622446
sg49
F-0.4860236313150896
ssS'Jacob_Wiley'
p250
(dp251
g3
F-0.7377413394042388
sg4
F-0.1278633948517108
sg5
F-0.7866683820762604
sg6
F-0.6975771696851014
sg7
F-0.4517011054441099
sg8
F-0.6299386527104679
sg9
F-0.3141071436325261
sg10
F-0.7708794194061022
sg11
F-0.9039290372870036
sg12
F-0.8515781532608253
sg13
F-0.701181509336978
sg14
F-0.36922820653907196
sg15
F-0.28464040951731523
sg16
F-0.8173332402096979
sg17
F-0.4404378491294632
sg18
F0.15474044998720915
sg19
F-0.9753138172857211
sg20
F-0.20613225874362937
sg21
F-0.815606404095133
sg22
F-0.7848869908505657
sg23
F-0.37225436087578223
sg24
F-0.6516869647435798
sg25
F-0.7377502829602954
sg26
F-0.3233708745984165
sg27
F-0.7678232084892292
sg28
F0.4461625996637176
sg29
F-0.9759983611432056
sg30
F-0.9022852960373838
sg31
F-0.5520509749305826
sg32
F-0.022058906359895495
sg33
F-0.7801326409830731
sg34
F-0.8113545647905396
sg35
F-0.8500617379318349
sg36
F-0.5878030773360736
sg37
F-0.8466442273670174
sg38
F-0.7730410908128542
sg39
F-0.4525769036627627
sg40
F-0.898248058559345
sg41
F-0.8326869978549559
sg42
F-0.8514157550542528
sg43
F-0.5789786737129734
sg44
F-0.870063538759474
sg45
F-0.4829077109999768
sg46
F-0.864376452976281
sg47
F-0.7781000556454405
sg48
F-0.4974205376918046
sg49
F-0.48319974684386685
ssS'Matt_Costello'
p252
(dp253
g3
F-0.7183225421049684
sg4
F-0.092601587424516
sg5
F-0.7323800607521734
sg6
F-0.754318164364315
sg7
F-0.4599083537112157
sg8
F-0.5821525199257807
sg9
F-0.31931937890420464
sg10
F-0.7688742368990984
sg11
F-0.9216151316211669
sg12
F-0.9218038858209288
sg13
F-0.6827639960735796
sg14
F-0.2700148989876803
sg15
F-0.2906968003290108
sg16
F-0.6717557422558996
sg17
F-0.4036069145521641
sg18
F0.06021798937319266
sg19
F-0.973706819263779
sg20
F-0.14414069242763736
sg21
F-0.7785814597966492
sg22
F-0.7317394300714062
sg23
F-0.37809637505125343
sg24
F-0.7674998083472122
sg25
F-0.7376721170373217
sg26
F-0.3264007910197371
sg27
F-0.7656037075953958
sg28
F-0.02620841082993758
sg29
F-0.8792942753762761
sg30
F-0.8075997261650637
sg31
F-0.6049055263591265
sg32
F-0.06178207276934647
sg33
F-0.7692330710457528
sg34
F-0.7586732414883942
sg35
F-0.8171769136270266
sg36
F-0.5354994557319951
sg37
F-0.8872140576952297
sg38
F-0.770752053108259
sg39
F-0.4586735827408666
sg40
F-0.900740090167025
sg41
F-0.7936291142834908
sg42
F-0.920332858913142
sg43
F-0.47637790028796256
sg44
F-0.8631940824027894
sg45
F-0.3979930319091296
sg46
F-0.852835316756005
sg47
F-0.8476938476908373
sg48
F-0.49722148321940907
sg49
F-0.4857078114963862
ssS'Jaylen_Morris'
p254
(dp255
g3
F-0.8188832179392581
sg4
F-0.13192421168734778
sg5
F-0.7496974475194081
sg6
F-0.4199334888986915
sg7
F-0.5810537550300671
sg8
F-0.7980162544391033
sg9
F-0.3226234470620155
sg10
F-0.739555677147819
sg11
F-0.6926851019886207
sg12
F-0.955508365010068
sg13
F-0.7904267331796563
sg14
F-0.17230997692230265
sg15
F-0.2701948306913966
sg16
F-0.8583106402892753
sg17
F-0.4088129996602272
sg18
F0.05276296476230845
sg19
F-0.9082356964065058
sg20
F-0.24574113390544988
sg21
F-0.763959186355525
sg22
F-0.7884419735222374
sg23
F-0.3550744417459646
sg24
F-0.12327679366370095
sg25
F-0.6794615181929085
sg26
F-0.3439700986879971
sg27
F-0.7580655729416674
sg28
F0.6190466890157736
sg29
F-0.8640646407245144
sg30
F-0.8359193923705998
sg31
F0.21570491366201722
sg32
F-0.043653102494451604
sg33
F-0.7894619045855072
sg34
F-0.8414617511129023
sg35
F-0.9598443720364731
sg36
F-0.7787275899757312
sg37
F-0.6013884854816663
sg38
F-0.7659572156080939
sg39
F-0.3716870461075604
sg40
F-0.9309816246404103
sg41
F-0.954329828403178
sg42
F-0.9551667745102603
sg43
F-0.6252555113971398
sg44
F-0.500368412774137
sg45
F-0.3179406133857603
sg46
F-0.7956323750607697
sg47
F-0.4412197623362308
sg48
F-0.507595267391405
sg49
F-0.49812706427514314
ssS'Brandon_Paul'
p256
(dp257
g3
F-0.5624385215257184
sg4
F-0.3566123991291898
sg5
F-0.8615136977590376
sg6
F-0.5005608403440966
sg7
F-0.7079387289778678
sg8
F-0.5868956591541057
sg9
F-0.34760368541490355
sg10
F-0.704945308667466
sg11
F-0.8244588856891049
sg12
F-0.9779292298069086
sg13
F-0.5379821992107285
sg14
F-0.4822143541267744
sg15
F-0.3239326773064097
sg16
F-0.8623571122660278
sg17
F-0.557653462688925
sg18
F0.0475615487781779
sg19
F-0.9548389110277424
sg20
F-0.431975886379917
sg21
F-0.8489102960586009
sg22
F-0.7442282162383705
sg23
F-0.47512563848127803
sg24
F-0.21225466190463962
sg25
F-0.7167753706776274
sg26
F-0.33900535031810863
sg27
F-0.8325246889963743
sg28
F0.07230717244900317
sg29
F-0.8936699224236861
sg30
F-0.5774418309949927
sg31
F-0.6202822558032473
sg32
F-0.09899101403366363
sg33
F-0.7939105523412031
sg34
F-0.9066747867312954
sg35
F-0.972093155935154
sg36
F-0.5345316774608724
sg37
F-0.8144925957875633
sg38
F-0.8335528233164657
sg39
F-0.37122844378343994
sg40
F-0.8616826924610793
sg41
F-0.9696550954853302
sg42
F-0.9757532056840607
sg43
F-0.7771239203574368
sg44
F-0.8404673914852021
sg45
F-0.6015828060465415
sg46
F-0.8705661473377149
sg47
F-0.71937173141991
sg48
F-0.5042534774087779
sg49
F-0.4990340213812429
ssS'Tyler_Cavanaugh'
p258
(dp259
g3
F-0.6216526442861179
sg4
F-0.4610928100153514
sg5
F-0.8509884818858111
sg6
F-0.4671024466469804
sg7
F-0.5396108737314051
sg8
F-0.5069473568443041
sg9
F-0.3474450098370746
sg10
F-0.7947542556599395
sg11
F-0.7909124137164083
sg12
F-0.9141529051884755
sg13
F-0.567215831559834
sg14
F-0.4021279179969967
sg15
F-0.32700000847434796
sg16
F-0.8395652221246808
sg17
F-0.5440900798403288
sg18
F0.0935093250248666
sg19
F-0.9411685224776143
sg20
F-0.4316654359521866
sg21
F-0.8506417184771441
sg22
F-0.8307964325164795
sg23
F-0.4787087815109229
sg24
F-0.13498293195550318
sg25
F-0.5018934027992175
sg26
F-0.35222710858446693
sg27
F-0.8244496163759301
sg28
F0.17200713967957054
sg29
F-0.8972053046961951
sg30
F-0.8582281604008128
sg31
F-0.5397910490534922
sg32
F-0.085368263788354
sg33
F-0.7715563703782867
sg34
F-0.9098199594081968
sg35
F-0.8311591024644864
sg36
F-0.45281174675060454
sg37
F-0.8539570247314057
sg38
F-0.8225047398770372
sg39
F-0.44780662548181943
sg40
F-0.90549710942674
sg41
F-0.810195720506987
sg42
F-0.9081600867474571
sg43
F-0.7783283354616025
sg44
F-0.8150725371104035
sg45
F-0.569240749178011
sg46
F-0.761307161314618
sg47
F-0.7850945711141807
sg48
F-0.5044786550436808
sg49
F-0.49334603386975556
ssS'Milton_Doyle'
p260
(dp261
g3
F-0.5768481032123249
sg4
F-0.37836730575702365
sg5
F-0.8760920590512927
sg6
F-0.5992885803998006
sg7
F-0.7122321848498057
sg8
F-0.5817472411490872
sg9
F-0.3581942606976849
sg10
F-0.7154503639552493
sg11
F-0.8414344078926828
sg12
F-0.9735056043367007
sg13
F-0.5514547297983643
sg14
F-0.5123370530888947
sg15
F-0.33291227549343744
sg16
F-0.8588468035748014
sg17
F-0.587588574367568
sg18
F0.05369964693791824
sg19
F-0.969883320790861
sg20
F-0.4502483062205986
sg21
F-0.8652003113282231
sg22
F-0.7572524924257823
sg23
F-0.503312450142041
sg24
F-0.28055563221275026
sg25
F-0.7650949880595741
sg26
F-0.3437132816073703
sg27
F-0.8580885787528669
sg28
F0.1273420829872262
sg29
F-0.9375474574531961
sg30
F-0.6708048984070596
sg31
F-0.7326948208463939
sg32
F-0.10549065745662443
sg33
F-0.7824481455675151
sg34
F-0.9062087382604316
sg35
F-0.9513376814717591
sg36
F-0.528185784684084
sg37
F-0.8592825021402203
sg38
F-0.8572469322666807
sg39
F-0.48747409955856336
sg40
F-0.8621685217959133
sg41
F-0.9479420775986258
sg42
F-0.9720297404449588
sg43
F-0.7661667800067814
sg44
F-0.9045901034568549
sg45
F-0.6076011878994643
sg46
F-0.9018010481874186
sg47
F-0.780447270717676
sg48
F-0.5070372658867133
sg49
F-0.5019686340562924
ssS'Khem_Birch'
p262
(dp263
g3
F-0.7728190869304179
sg4
F0.008186709838514734
sg5
F-0.7636543585783468
sg6
F-0.8248187747930539
sg7
F-0.5709464946999213
sg8
F-0.63324356457622
sg9
F-0.29834342065556707
sg10
F-0.6957425959764787
sg11
F-0.9480534927519264
sg12
F-0.8171098724134078
sg13
F-0.7424031723478207
sg14
F-0.37672409249771877
sg15
F-0.26760250232033367
sg16
F-0.7240922325115653
sg17
F-0.33290342759114677
sg18
F0.09031246862850935
sg19
F-0.9820517062912721
sg20
F-0.026283953609059683
sg21
F-0.7913783035162077
sg22
F-0.6956244712801516
sg23
F-0.3062568233436637
sg24
F-0.8418741288864285
sg25
F-0.735018540373677
sg26
F-0.30852830578227547
sg27
F-0.8164458142209216
sg28
F0.1872536125031527
sg29
F-0.8591971393700316
sg30
F-0.7880195932796982
sg31
F-0.47804230765991435
sg32
F-0.028212814873574854
sg33
F-0.7731449382234766
sg34
F-0.7816026522870747
sg35
F-0.816335305452799
sg36
F-0.5891543923832168
sg37
F-0.880963517694006
sg38
F-0.819668929621148
sg39
F-0.5195651860422861
sg40
F-0.8053742762118813
sg41
F-0.7947607635684962
sg42
F-0.8158034081995489
sg43
F-0.5534492299499468
sg44
F-0.8243342001386847
sg45
F-0.5015027227018732
sg46
F-0.8826297819954754
sg47
F-0.836270727867544
sg48
F-0.48489437551460035
sg49
F-0.47516120768275344
ssS'Kyle_Kuzma'
p264
(dp265
g3
F-0.7444300807851165
sg4
F-0.0803228893310148
sg5
F-0.7341288083272413
sg6
F-0.5356630974433794
sg7
F-0.4739761559771161
sg8
F-0.6417345737545882
sg9
F-0.3006923485519961
sg10
F-0.7758822087527336
sg11
F-0.8707504218978287
sg12
F-0.8497437104987131
sg13
F-0.7063542256391238
sg14
F-0.26860014763875023
sg15
F-0.26493860801180324
sg16
F-0.8089857657471943
sg17
F-0.3848888540334767
sg18
F0.1335239375311357
sg19
F-0.9637559218492638
sg20
F-0.13694100702967807
sg21
F-0.777468543760913
sg22
F-0.7944117456128394
sg23
F-0.34146633965042544
sg24
F-0.5978003120372113
sg25
F-0.7856891067466947
sg26
F-0.3192979815840174
sg27
F-0.8180502199198771
sg28
F0.47051607925682126
sg29
F-0.7350625724821946
sg30
F-0.6907240736530367
sg31
F-0.07770536074343859
sg32
F-0.010258049518993765
sg33
F-0.7363174655079396
sg34
F-0.7703728864779775
sg35
F-0.8603184444866698
sg36
F-0.6047485252717864
sg37
F-0.8082983914995739
sg38
F-0.8226137901459619
sg39
F-0.26730987608878237
sg40
F-0.9256890189479575
sg41
F-0.8428521586622142
sg42
F-0.8514158013800762
sg43
F-0.49609590026679734
sg44
F-0.6032692575074876
sg45
F-0.36684632216462587
sg46
F-0.879960848550284
sg47
F-0.7330851086057328
sg48
F-0.4957914021264539
sg49
F-0.48235310834207706
ssS'John_Holland'
p266
(dp267
g3
F-0.5600605477468302
sg4
F-0.3246796168147671
sg5
F-0.8217224019208539
sg6
F-0.4882397816991298
sg7
F-0.4661826722777779
sg8
F-0.5497133308705031
sg9
F-0.3298477259865202
sg10
F-0.8108256762663899
sg11
F-0.7325891158494156
sg12
F-0.9274329773300803
sg13
F-0.5318521425468726
sg14
F-0.4131985719953124
sg15
F-0.30505363150376397
sg16
F-0.848279771272962
sg17
F-0.48333166645177716
sg18
F0.09866442770665591
sg19
F-0.9217335721139327
sg20
F-0.36213110761393
sg21
F-0.8270336329135675
sg22
F-0.8230615133531147
sg23
F-0.4431706542902437
sg24
F-0.06977749833696742
sg25
F-0.7801320889301947
sg26
F-0.328047827883845
sg27
F-0.7207585124824532
sg28
F0.21356475287358107
sg29
F-0.7988586510094852
sg30
F-0.5277790065129118
sg31
F-0.3017483684513496
sg32
F-0.06198404568657287
sg33
F-0.7790668897515187
sg34
F-0.8999888298069209
sg35
F-0.9396082902262215
sg36
F-0.49966883797305167
sg37
F-0.847503733962741
sg38
F-0.7225401033726322
sg39
F-0.505379675632227
sg40
F-0.9294492573407154
sg41
F-0.9325170703217877
sg42
F-0.921348243908699
sg43
F-0.7722848588026611
sg44
F-0.7589176091403368
sg45
F-0.5048739746520766
sg46
F-0.8755651350904521
sg47
F-0.7734712313908864
sg48
F-0.5058110679880501
sg49
F-0.4920989980297156
ssS'Alec_Peters'
p268
(dp269
g3
F-0.7422978136678866
sg4
F-0.20281005552315734
sg5
F-0.7685797004755595
sg6
F-0.40699148312632943
sg7
F-0.3958912812572389
sg8
F-0.6558209278412457
sg9
F-0.3174717250182607
sg10
F-0.8158189933159428
sg11
F-0.7905857676468251
sg12
F-0.8903985421767783
sg13
F-0.7044246807968679
sg14
F-0.3214139835536771
sg15
F-0.273773710552229
sg16
F-0.8294392599808289
sg17
F-0.4025082700717169
sg18
F0.1377216237437398
sg19
F-0.9408984921568829
sg20
F-0.21039017445307837
sg21
F-0.7987332226383625
sg22
F-0.8376330107013678
sg23
F-0.360634001277815
sg24
F-0.27212558299688605
sg25
F-0.7608651518994141
sg26
F-0.3280126027800534
sg27
F-0.7619589743273364
sg28
F0.5430817575588666
sg29
F-0.7679995705055139
sg30
F-0.672022225374108
sg31
F-0.20797513241473858
sg32
F-0.016893564247891544
sg33
F-0.7680712343536406
sg34
F-0.8276812083186765
sg35
F-0.8762270903271152
sg36
F-0.6185249039950019
sg37
F-0.8130453116218177
sg38
F-0.7616303208626033
sg39
F-0.3506085986088956
sg40
F-0.9344572242002052
sg41
F-0.8618082987320135
sg42
F-0.8851913277762481
sg43
F-0.6201852169921593
sg44
F-0.6841856175896952
sg45
F-0.4107709846389845
sg46
F-0.8688484427028048
sg47
F-0.7326337400610083
sg48
F-0.5021435064681741
sg49
F-0.48596218029038984
ssS'Furkan_Korkmaz'
p270
(dp271
g3
F-0.8214431578762054
sg4
F-0.15285381955259644
sg5
F-0.7540819088157144
sg6
F-0.3674097946397566
sg7
F-0.5770267299854168
sg8
F-0.7934491055179363
sg9
F-0.32592285348936567
sg10
F-0.7583375053881047
sg11
F-0.7021418533750303
sg12
F-0.956409016963234
sg13
F-0.796597131205856
sg14
F-0.2496629260171518
sg15
F-0.26257723539235406
sg16
F-0.7914995102280453
sg17
F-0.3967819472911992
sg18
F0.061943359953570344
sg19
F-0.9036145024577072
sg20
F-0.2474282956365716
sg21
F-0.7681242556427647
sg22
F-0.8053491633485624
sg23
F-0.34404283652202994
sg24
F-0.04336513935087151
sg25
F-0.7213805136340284
sg26
F-0.3319213005245338
sg27
F-0.771873947210562
sg28
F0.6668585051573346
sg29
F-0.8879251161316755
sg30
F-0.8297408119536718
sg31
F0.059836835901909385
sg32
F-0.03305701144835174
sg33
F-0.7971411919867161
sg34
F-0.850467406358007
sg35
F-0.9499599100159897
sg36
F-0.7714030678921951
sg37
F-0.7003349294521908
sg38
F-0.7738968918820055
sg39
F-0.48856774035537776
sg40
F-0.9323752097136648
sg41
F-0.9437240196675502
sg42
F-0.9546165984153292
sg43
F-0.6575629284384171
sg44
F-0.6796241177021145
sg45
F-0.3597047818134473
sg46
F-0.8303663608582532
sg47
F-0.569521863924935
sg48
F-0.5002193079899112
sg49
F-0.48993691932794864
ssS'James_Webb_III'
p272
(dp273
g3
F-0.8124994098414804
sg4
F-0.11447448228923997
sg5
F-0.6661024333076375
sg6
F-0.3868914822155528
sg7
F-0.689280711545915
sg8
F-0.7633814896216293
sg9
F-0.29089191486006366
sg10
F-0.8978904905204484
sg11
F-0.7400740454140582
sg12
F-0.9588234992220176
sg13
F-0.7884959700764942
sg14
F-0.1909760354304869
sg15
F-0.25375446110855987
sg16
F-0.8462545701444317
sg17
F-0.32246235084342534
sg18
F0.0009016877904884715
sg19
F-0.8732450890249859
sg20
F-0.1237585604076758
sg21
F-0.7200226504757089
sg22
F-0.9063313185149761
sg23
F-0.3025289842169661
sg24
F-0.30915798847534826
sg25
F-0.7380877570185613
sg26
F-0.3328613139584873
sg27
F-0.7266825914172421
sg28
F-0.07355855863578677
sg29
F-0.7565852753431268
sg30
F-0.5996311016201755
sg31
F-0.3127304427156722
sg32
F-0.046165068156036576
sg33
F-0.7819881636102297
sg34
F-0.7928573442826519
sg35
F-0.9207110740339305
sg36
F-0.733210483875411
sg37
F-0.7821400263729805
sg38
F-0.7361511151863054
sg39
F-0.4787666362984193
sg40
F-0.9639227925117485
sg41
F-0.9128423893013337
sg42
F-0.9560950914144744
sg43
F-0.5310464488642282
sg44
F-0.6859787919269065
sg45
F-0.27112049427828655
sg46
F-0.8252499784905896
sg47
F-0.7302475469598237
sg48
F-0.5014894823355213
sg49
F-0.47608372844205676
ssS'Antonius_Cleveland'
p274
(dp275
g3
F-0.7554372465372025
sg4
F-0.24466689322033347
sg5
F-0.8297402574064234
sg6
F-0.35957345236349614
sg7
F-0.6166797821511532
sg8
F-0.7294771382671149
sg9
F-0.3419002580178987
sg10
F-0.6658451063483104
sg11
F-0.8389185925987883
sg12
F-0.9575262830588013
sg13
F-0.7224444832601606
sg14
F-0.4100213401240657
sg15
F-0.29212283414954493
sg16
F-0.8259625526757227
sg17
F-0.4641839674114037
sg18
F0.09563640622457695
sg19
F-0.9554315597959394
sg20
F-0.2898214120461329
sg21
F-0.8221329295137896
sg22
F-0.6939629496823828
sg23
F-0.38039096965429997
sg24
F-0.2574340273588964
sg25
F-0.6925871114101918
sg26
F-0.3383583099070037
sg27
F-0.7657855918771216
sg28
F0.18724491507845512
sg29
F-0.9201338796084474
sg30
F-0.6162588510833052
sg31
F-0.6027621671167416
sg32
F-0.050123070830464626
sg33
F-0.779094891258834
sg34
F-0.874308697610484
sg35
F-0.9394946831723974
sg36
F-0.6949319297095999
sg37
F-0.837655312691526
sg38
F-0.7692045292324821
sg39
F-0.3180774310469304
sg40
F-0.8372983485671832
sg41
F-0.933468500579251
sg42
F-0.956102195929959
sg43
F-0.7107259077653779
sg44
F-0.8337361317667331
sg45
F-0.5496445003641662
sg46
F-0.8589677546927946
sg47
F-0.7590457784215242
sg48
F-0.5008315874429865
sg49
F-0.492406308927653
ssS'Nigel_Hayes'
p276
(dp277
g3
F-0.8194051646677261
sg4
F-0.2810108559936565
sg5
F-0.8059412007774464
sg6
F-0.5587447644670266
sg7
F-0.669146830606527
sg8
F-0.7394955564949416
sg9
F-0.3149971921052015
sg10
F-0.7586891625292377
sg11
F-0.8545301251626714
sg12
F-0.9027925801441729
sg13
F-0.788381254937506
sg14
F-0.3754120997450434
sg15
F-0.2697723170491406
sg16
F-0.8498123725116318
sg17
F-0.4917055755618985
sg18
F0.11400933273844951
sg19
F-0.9553440175135355
sg20
F-0.3096916477934679
sg21
F-0.8199923859901038
sg22
F-0.7906806644184654
sg23
F-0.4380942486868463
sg24
F-0.5282767779415259
sg25
F-0.7988575605696022
sg26
F-0.32740866729746776
sg27
F-0.6618032618332104
sg28
F0.32634734457513337
sg29
F-0.9233865493493952
sg30
F-0.8149107738036367
sg31
F-0.42009202001114726
sg32
F-0.02129832063750904
sg33
F-0.7796638568723452
sg34
F-0.8505971832639107
sg35
F-0.895366499313949
sg36
F-0.7147716639816748
sg37
F-0.8083357280348809
sg38
F-0.6729464879620888
sg39
F-0.4522236958736356
sg40
F-0.9126561361092744
sg41
F-0.8819767854537484
sg42
F-0.902516161808599
sg43
F-0.620716008147842
sg44
F-0.7903536147491953
sg45
F-0.4752461333105133
sg46
F-0.8934140726839371
sg47
F-0.7284164914608716
sg48
F-0.49418330834901
sg49
F-0.4889500403311103
ssS'Alfonzo_McKinnie'
p278
(dp279
g3
F-0.8196153779542191
sg4
F-0.11946506256096559
sg5
F-0.7246938393011181
sg6
F-0.429257684361252
sg7
F-0.6694400931318344
sg8
F-0.719131406502314
sg9
F-0.29087039872145387
sg10
F-0.8423317256586946
sg11
F-0.8040389483451243
sg12
F-0.9390927918781015
sg13
F-0.7922638773539237
sg14
F-0.29669798180162127
sg15
F-0.23255355539889838
sg16
F-0.8350774166933312
sg17
F-0.3797615546457379
sg18
F0.08854664970560615
sg19
F-0.9398023584869083
sg20
F-0.16280450456947276
sg21
F-0.7730384161643362
sg22
F-0.861365914604399
sg23
F-0.3429891016163455
sg24
F-0.41130499028657364
sg25
F-0.808933132653083
sg26
F-0.3167583651430135
sg27
F-0.6875997606495243
sg28
F0.15191898380114738
sg29
F-0.9254576989160919
sg30
F-0.786842246802145
sg31
F-0.4215612600947876
sg32
F0.006149032943468198
sg33
F-0.7791715346063339
sg34
F-0.7848914808142099
sg35
F-0.8693480687495457
sg36
F-0.6889634467037649
sg37
F-0.7539394513479495
sg38
F-0.6979442495009943
sg39
F-0.23033689295178778
sg40
F-0.9409712226004612
sg41
F-0.853705247818863
sg42
F-0.9378737539422936
sg43
F-0.5458929743228396
sg44
F-0.7713777504618559
sg45
F-0.34993192266796413
sg46
F-0.9041322396235458
sg47
F-0.6915182542534765
sg48
F-0.49438862443418735
sg49
F-0.4695414808489487
ssS'Monte_Morris'
p280
(dp281
g3
F-0.8682568775642847
sg4
F-0.1579683261297939
sg5
F-0.7654391975297129
sg6
F-0.5524837144466243
sg7
F-0.6140935329465677
sg8
F-0.8533343073490037
sg9
F-0.3373400837328209
sg10
F-0.8064431322128911
sg11
F-0.7968916652315887
sg12
F-0.9752889512926443
sg13
F-0.8530630533455126
sg14
F-0.23725890130995567
sg15
F-0.2912146828562121
sg16
F-0.8187557437106292
sg17
F-0.4732140152795288
sg18
F0.05249612344133967
sg19
F-0.9488827048982945
sg20
F-0.2842773501295416
sg21
F-0.797911941795224
sg22
F-0.8316429143935229
sg23
F-0.4263533910808361
sg24
F-0.35338436352929853
sg25
F-0.6707287145653508
sg26
F-0.35424618720681955
sg27
F-0.6786568306192418
sg28
F0.1890139344352182
sg29
F-0.9514722585702529
sg30
F-0.950873150651367
sg31
F-0.4207503347478454
sg32
F-0.06502244898363403
sg33
F-0.7894017187149881
sg34
F-0.8165564926314185
sg35
F-0.9644101514949315
sg36
F-0.832667029059216
sg37
F-0.46218111992473265
sg38
F-0.6808729250724259
sg39
F-0.4942169312241385
sg40
F-0.9364771440415457
sg41
F-0.9609041758835369
sg42
F-0.9746760606918634
sg43
F-0.5802120872905067
sg44
F-0.8004722240708829
sg45
F-0.37710375252209516
sg46
F-0.7803599392511222
sg47
F-0.25903080169262066
sg48
F-0.5144539163844778
sg49
F-0.5020615873472876
ssS'Antonio_Blakeney'
p282
(dp283
g3
F-0.7848013322558913
sg4
F-0.2720313565439026
sg5
F-0.7924054861470513
sg6
F-0.35916568011341393
sg7
F-0.6147361758734013
sg8
F-0.7664160881728344
sg9
F-0.34163310407523484
sg10
F-0.7090881422466494
sg11
F-0.7701813736070899
sg12
F-0.9508634876875031
sg13
F-0.7554983912154289
sg14
F-0.2876770112041631
sg15
F-0.29108120940510823
sg16
F-0.8293211158469818
sg17
F-0.46581145491169257
sg18
F0.07009239848963958
sg19
F-0.9288492643503886
sg20
F-0.32049269497735616
sg21
F-0.7947886925476674
sg22
F-0.7131607949511187
sg23
F-0.3976594972660161
sg24
F-0.12821972014576788
sg25
F-0.6550131652244631
sg26
F-0.3500753805664859
sg27
F-0.7632898794943843
sg28
F-0.001151341533169592
sg29
F-0.918263373043301
sg30
F-0.7805880936122764
sg31
F-0.5244551078438187
sg32
F-0.0584411238694545
sg33
F-0.7754211430368211
sg34
F-0.8635562217966627
sg35
F-0.9508787448474019
sg36
F-0.7356800771032931
sg37
F-0.75406848425193
sg38
F-0.7640020953137924
sg39
F-0.33404077355298417
sg40
F-0.8569580452369757
sg41
F-0.9459931091714334
sg42
F-0.9489661494004462
sg43
F-0.6798401985585283
sg44
F-0.7726906018965682
sg45
F-0.45002157216561833
sg46
F-0.8098560123554085
sg47
F-0.6539176819416397
sg48
F-0.5090078075653207
sg49
F-0.5004630621717585
ssS'Daniel_Theis'
p284
(dp285
g3
F-0.6703620902058139
sg4
F0.06762901116183823
sg5
F-0.7347438799987505
sg6
F-0.8758325409083919
sg7
F-0.33540239700333035
sg8
F-0.5055963489505404
sg9
F-0.27711218033757595
sg10
F-0.7124889769519623
sg11
F-0.9602616345841283
sg12
F-0.7314549919669304
sg13
F-0.6339481558414077
sg14
F-0.2912081965347202
sg15
F-0.2650993522798581
sg16
F-0.7123957828804648
sg17
F-0.3017811611229196
sg18
F0.1897598823060742
sg19
F-0.9909119730532536
sg20
F0.03260561824258986
sg21
F-0.7775390187135052
sg22
F-0.6701896986453781
sg23
F-0.27898320254212566
sg24
F-0.8681023988857576
sg25
F-0.6276620306363448
sg26
F-0.304182100993844
sg27
F-0.8037950696085748
sg28
F0.20974433601221687
sg29
F-0.9363105970850236
sg30
F-0.8495915335538162
sg31
F-0.33659855420278717
sg32
F0.009742851185946753
sg33
F-0.7663019667460064
sg34
F-0.743831906945497
sg35
F-0.7717481978368359
sg36
F-0.44211028804264985
sg37
F-0.8247529873879301
sg38
F-0.8081382130974524
sg39
F-0.569792891340174
sg40
F-0.8385122534116641
sg41
F-0.7442590193763812
sg42
F-0.7314166920119861
sg43
F-0.5149335094345389
sg44
F-0.8318235847555179
sg45
F-0.4751951440186671
sg46
F-0.7958415846865388
sg47
F-0.7606638538336326
sg48
F-0.4885277550393351
sg49
F-0.4727528111310142
ss.